
main.elf:     file format elf32-tradbigmips


Disassembly of section .text:

80000000 <_ftext>:
80000000:	3c060040 	lui	a2,0x40
80000004:	40866000 	mtc0	a2,c0_status
80000008:	40806800 	mtc0	zero,c0_cause
8000000c:	3c1d8020 	lui	sp,0x8020
80000010:	27bd48e8 	addiu	sp,sp,18664
80000014:	3c1c8002 	lui	gp,0x8002
80000018:	279c9b50 	addiu	gp,gp,-25776
8000001c:	34070000 	li	a3,0x0
80000020:	00e00013 	mtlo	a3
80000024:	34180000 	li	t8,0x0
80000028:	03000011 	mthi	t8
8000002c:	08000187 	j	8000061c <locate>
80000030:	00000000 	nop
	...
80000380:	24030001 	li	v1,1
80000384:	1043001b 	beq	v0,v1,800003f4 <syscall_ex>
80000388:	00000000 	nop
8000038c:	24030002 	li	v1,2
80000390:	1043002b 	beq	v0,v1,80000440 <break_ex>
80000394:	00000000 	nop
80000398:	24030003 	li	v1,3
8000039c:	1043003b 	beq	v0,v1,8000048c <eret_ex>
800003a0:	00000000 	nop
800003a4:	24030004 	li	v1,4
800003a8:	1043003e 	beq	v0,v1,800004a4 <overflow_ex>
800003ac:	00000000 	nop
800003b0:	24030005 	li	v1,5
800003b4:	10430049 	beq	v0,v1,800004dc <adel_load_ex>
800003b8:	00000000 	nop
800003bc:	24030006 	li	v1,6
800003c0:	10430054 	beq	v0,v1,80000514 <ades_ex>
800003c4:	00000000 	nop
800003c8:	24030007 	li	v1,7
800003cc:	1043005f 	beq	v0,v1,8000054c <adel_if_ex>
800003d0:	00000000 	nop
800003d4:	24030008 	li	v1,8
800003d8:	1043006b 	beq	v0,v1,80000588 <reserved_inst_ex>
800003dc:	00000000 	nop
800003e0:	24030009 	li	v1,9
800003e4:	10430076 	beq	v0,v1,800005c0 <delay_slot_ex>
800003e8:	00000000 	nop
800003ec:	1000007b 	b	800005dc <other_ex>
800003f0:	00000000 	nop

800003f4 <syscall_ex>:
800003f4:	00001021 	move	v0,zero
800003f8:	401a7000 	mfc0	k0,c0_epc
800003fc:	3c1b8000 	lui	k1,0x8000
80000400:	277b1000 	addiu	k1,k1,4096
80000404:	175b0075 	bne	k0,k1,800005dc <other_ex>
80000408:	00000000 	nop
8000040c:	401a6800 	mfc0	k0,c0_cause
80000410:	335a007c 	andi	k0,k0,0x7c
80000414:	241b0020 	li	k1,32
80000418:	175b0070 	bne	k0,k1,800005dc <other_ex>
8000041c:	00000000 	nop
80000420:	401a6000 	mfc0	k0,c0_status
80000424:	335a0002 	andi	k0,k0,0x2
80000428:	241b0002 	li	k1,2
8000042c:	175b006b 	bne	k0,k1,800005dc <other_ex>
80000430:	00000000 	nop
80000434:	3c0200ff 	lui	v0,0xff
80000438:	10000068 	b	800005dc <other_ex>
8000043c:	00000000 	nop

80000440 <break_ex>:
80000440:	00001021 	move	v0,zero
80000444:	401a7000 	mfc0	k0,c0_epc
80000448:	3c1b8000 	lui	k1,0x8000
8000044c:	277b2560 	addiu	k1,k1,9568
80000450:	175b0062 	bne	k0,k1,800005dc <other_ex>
80000454:	00000000 	nop
80000458:	401a6800 	mfc0	k0,c0_cause
8000045c:	335a007c 	andi	k0,k0,0x7c
80000460:	241b0024 	li	k1,36
80000464:	175b005d 	bne	k0,k1,800005dc <other_ex>
80000468:	00000000 	nop
8000046c:	401a6000 	mfc0	k0,c0_status
80000470:	335a0002 	andi	k0,k0,0x2
80000474:	241b0002 	li	k1,2
80000478:	175b0058 	bne	k0,k1,800005dc <other_ex>
8000047c:	00000000 	nop
80000480:	3c02ff00 	lui	v0,0xff00
80000484:	10000055 	b	800005dc <other_ex>
80000488:	00000000 	nop

8000048c <eret_ex>:
8000048c:	3c1a8000 	lui	k0,0x8000
80000490:	275a13a0 	addiu	k0,k0,5024
80000494:	409a7000 	mtc0	k0,c0_epc
80000498:	3c020f0f 	lui	v0,0xf0f
8000049c:	1000004f 	b	800005dc <other_ex>
800004a0:	00000000 	nop

800004a4 <overflow_ex>:
800004a4:	00001021 	move	v0,zero
800004a8:	401a6800 	mfc0	k0,c0_cause
800004ac:	335a007c 	andi	k0,k0,0x7c
800004b0:	241b0030 	li	k1,48
800004b4:	175b0049 	bne	k0,k1,800005dc <other_ex>
800004b8:	00000000 	nop
800004bc:	401a6000 	mfc0	k0,c0_status
800004c0:	335a0002 	andi	k0,k0,0x2
800004c4:	241b0002 	li	k1,2
800004c8:	175b0044 	bne	k0,k1,800005dc <other_ex>
800004cc:	00000000 	nop
800004d0:	3c021234 	lui	v0,0x1234
800004d4:	10000041 	b	800005dc <other_ex>
800004d8:	00000000 	nop

800004dc <adel_load_ex>:
800004dc:	00001021 	move	v0,zero
800004e0:	401a6800 	mfc0	k0,c0_cause
800004e4:	335a007c 	andi	k0,k0,0x7c
800004e8:	241b0010 	li	k1,16
800004ec:	175b003b 	bne	k0,k1,800005dc <other_ex>
800004f0:	00000000 	nop
800004f4:	401a6000 	mfc0	k0,c0_status
800004f8:	335a0002 	andi	k0,k0,0x2
800004fc:	241b0002 	li	k1,2
80000500:	175b0036 	bne	k0,k1,800005dc <other_ex>
80000504:	00000000 	nop
80000508:	3c025678 	lui	v0,0x5678
8000050c:	10000033 	b	800005dc <other_ex>
80000510:	00000000 	nop

80000514 <ades_ex>:
80000514:	00001021 	move	v0,zero
80000518:	401a6800 	mfc0	k0,c0_cause
8000051c:	335a007c 	andi	k0,k0,0x7c
80000520:	241b0014 	li	k1,20
80000524:	175b002d 	bne	k0,k1,800005dc <other_ex>
80000528:	00000000 	nop
8000052c:	401a6000 	mfc0	k0,c0_status
80000530:	335a0002 	andi	k0,k0,0x2
80000534:	241b0002 	li	k1,2
80000538:	175b0028 	bne	k0,k1,800005dc <other_ex>
8000053c:	00000000 	nop
80000540:	3c021111 	lui	v0,0x1111
80000544:	10000025 	b	800005dc <other_ex>
80000548:	00000000 	nop

8000054c <adel_if_ex>:
8000054c:	00001021 	move	v0,zero
80000550:	409b7000 	mtc0	k1,c0_epc
80000554:	401a6800 	mfc0	k0,c0_cause
80000558:	335a007c 	andi	k0,k0,0x7c
8000055c:	241b0010 	li	k1,16
80000560:	175b001e 	bne	k0,k1,800005dc <other_ex>
80000564:	00000000 	nop
80000568:	401a6000 	mfc0	k0,c0_status
8000056c:	335a0002 	andi	k0,k0,0x2
80000570:	241b0002 	li	k1,2
80000574:	175b0019 	bne	k0,k1,800005dc <other_ex>
80000578:	00000000 	nop
8000057c:	3c022222 	lui	v0,0x2222
80000580:	10000016 	b	800005dc <other_ex>
80000584:	00000000 	nop

80000588 <reserved_inst_ex>:
80000588:	00001021 	move	v0,zero
8000058c:	401a6800 	mfc0	k0,c0_cause
80000590:	335a007c 	andi	k0,k0,0x7c
80000594:	241b0028 	li	k1,40
80000598:	175b0010 	bne	k0,k1,800005dc <other_ex>
8000059c:	00000000 	nop
800005a0:	401a6000 	mfc0	k0,c0_status
800005a4:	335a0002 	andi	k0,k0,0x2
800005a8:	241b0002 	li	k1,2
800005ac:	175b000b 	bne	k0,k1,800005dc <other_ex>
800005b0:	00000000 	nop
800005b4:	3c023333 	lui	v0,0x3333
800005b8:	10000008 	b	800005dc <other_ex>
800005bc:	00000000 	nop

800005c0 <delay_slot_ex>:
800005c0:	00001021 	move	v0,zero
800005c4:	401a6800 	mfc0	k0,c0_cause
800005c8:	3c1b8000 	lui	k1,0x8000
800005cc:	035bd024 	and	k0,k0,k1
800005d0:	175b0002 	bne	k0,k1,800005dc <other_ex>
800005d4:	00000000 	nop
800005d8:	3c024444 	lui	v0,0x4444

800005dc <other_ex>:
800005dc:	401a6800 	mfc0	k0,c0_cause
800005e0:	40037000 	mfc0	v1,c0_epc
800005e4:	3c1b8000 	lui	k1,0x8000
800005e8:	24630004 	addiu	v1,v1,4
800005ec:	035bd024 	and	k0,k0,k1
800005f0:	13400002 	beqz	k0,800005fc <other_ex+0x20>
800005f4:	00000000 	nop
800005f8:	24630004 	addiu	v1,v1,4
800005fc:	40837000 	mtc0	v1,c0_epc
80000600:	14400002 	bnez	v0,8000060c <ex_ret>
80000604:	00000000 	nop
80000608:	3c02ffff 	lui	v0,0xffff

8000060c <ex_ret>:
8000060c:	42000018 	eret
	...

8000061c <locate>:
8000061c:	3409ffff 	li	t1,0xffff
80000620:	3c08bfd0 	lui	t0,0xbfd0
80000624:	3508f000 	ori	t0,t0,0xf000
80000628:	ad090000 	sw	t1,0(t0)
8000062c:	3c11bfd0 	lui	s1,0xbfd0
80000630:	3631f010 	ori	s1,s1,0xf010
80000634:	3c130000 	lui	s3,0x0
80000638:	ae330000 	sw	s3,0(s1)

8000063c <inst_test>:
8000063c:	0c00049a 	jal	80001268 <n1_add_test>
80000640:	00000000 	nop
80000644:	0c00032e 	jal	80000cb8 <n2_addi_test>
80000648:	00000000 	nop
8000064c:	0c0003ae 	jal	80000eb8 <n3_addu_test>
80000650:	00000000 	nop
80000654:	0c00030c 	jal	80000c30 <n4_addiu_test>
80000658:	00000000 	nop
8000065c:	0c0004ac 	jal	800012b0 <n5_sub_test>
80000660:	00000000 	nop
80000664:	0c000944 	jal	80002510 <n6_subu_test>
80000668:	00000000 	nop
8000066c:	0c0002e6 	jal	80000b98 <n7_slt_test>
80000670:	00000000 	nop
80000674:	0c00048a 	jal	80001228 <n8_slti_test>
80000678:	00000000 	nop
8000067c:	0c00099e 	jal	80002678 <n9_sltu_test>
80000680:	00000000 	nop
80000684:	0c0004be 	jal	800012f8 <n10_sltiu_test>
80000688:	00000000 	nop
8000068c:	0c00121c 	jal	80004870 <n15_and_test>
80000690:	00000000 	nop
80000694:	0c001162 	jal	80004588 <n16_andi_test>
80000698:	00000000 	nop
8000069c:	0c00122e 	jal	800048b8 <n17_lui_test>
800006a0:	00000000 	nop
800006a4:	0c0004ce 	jal	80001338 <n18_nor_test>
800006a8:	00000000 	nop
800006ac:	0c00098c 	jal	80002630 <n19_or_test>
800006b0:	00000000 	nop
800006b4:	0c0011f8 	jal	800047e0 <n20_ori_test>
800006b8:	00000000 	nop
800006bc:	0c000a0a 	jal	80002828 <n21_xor_test>
800006c0:	00000000 	nop
800006c4:	0c001122 	jal	80004488 <n22_xori_test>
800006c8:	00000000 	nop
800006cc:	0c001172 	jal	800045c8 <n23_sll_test>
800006d0:	00000000 	nop
800006d4:	0c00097a 	jal	800025e8 <n24_sllv_test>
800006d8:	00000000 	nop
800006dc:	0c00120a 	jal	80004828 <n25_sra_test>
800006e0:	00000000 	nop
800006e4:	0c001184 	jal	80004610 <n26_srav_test>
800006e8:	00000000 	nop
800006ec:	0c00043a 	jal	800010e8 <n27_srl_test>
800006f0:	00000000 	nop
800006f4:	0c00031e 	jal	80000c78 <n28_srlv_test>
800006f8:	00000000 	nop
800006fc:	0c0010ea 	jal	800043a8 <n29_beq_test>
80000700:	00000000 	nop
80000704:	0c000904 	jal	80002410 <n30_bne_test>
80000708:	00000000 	nop
8000070c:	0c001134 	jal	800044d0 <n31_bgez_test>
80000710:	00000000 	nop
80000714:	0c0011be 	jal	800046f8 <n32_bgtz_test>
80000718:	00000000 	nop
8000071c:	0c000366 	jal	80000d98 <n33_blez_test>
80000720:	00000000 	nop
80000724:	0c00044c 	jal	80001130 <n34_bltz_test>
80000728:	00000000 	nop
8000072c:	0c00040a 	jal	80001028 <n37_j_test>
80000730:	00000000 	nop
80000734:	0c0009c6 	jal	80002718 <n38_jal_test>
80000738:	00000000 	nop
8000073c:	0c0002ac 	jal	80000ab0 <n39_jr_test>
80000740:	00000000 	nop
80000744:	0c0003c0 	jal	80000f00 <n40_jalr_test>
80000748:	00000000 	nop
8000074c:	0c0011ac 	jal	800046b0 <n41_mfhi_test>
80000750:	00000000 	nop
80000754:	0c000340 	jal	80000d00 <n42_mflo_test>
80000758:	00000000 	nop
8000075c:	0c0009f8 	jal	800027e0 <n43_mthi_test>
80000760:	00000000 	nop
80000764:	0c00039c 	jal	80000e70 <n44_mtlo_test>
80000768:	00000000 	nop
8000076c:	0c0003fe 	jal	80000ff8 <n46_syscall_test>
80000770:	00000000 	nop
80000774:	0c0002f8 	jal	80000be0 <n47_lb_test>
80000778:	00000000 	nop
8000077c:	0c000a1c 	jal	80002870 <n48_lbu_test>
80000780:	00000000 	nop
80000784:	0c0004f2 	jal	800013c8 <n49_lh_test>
80000788:	00000000 	nop
8000078c:	0c001196 	jal	80004658 <n51_lw_test>
80000790:	00000000 	nop
80000794:	0c000962 	jal	80002588 <n52_sb_test>
80000798:	00000000 	nop
8000079c:	0c000350 	jal	80000d40 <n54_sw_test>
800007a0:	00000000 	nop
800007a4:	0c0004e0 	jal	80001380 <n55_eret_test>
800007a8:	00000000 	nop
800007ac:	0c00028f 	jal	80000a3c <wait_1s>
800007b0:	00000000 	nop
800007b4:	0c0009b0 	jal	800026c0 <n56_mfc0_test>
800007b8:	00000000 	nop
800007bc:	0c00028f 	jal	80000a3c <wait_1s>
800007c0:	00000000 	nop
800007c4:	0c000296 	jal	80000a58 <n57_mtc0_test>
800007c8:	00000000 	nop
800007cc:	0c00028f 	jal	80000a3c <wait_1s>
800007d0:	00000000 	nop
800007d4:	3c028001 	lui	v0,0x8001
800007d8:	24421974 	addiu	v0,v0,6516
800007dc:	0040f809 	jalr	v0
800007e0:	00000000 	nop
800007e4:	0c00028f 	jal	80000a3c <wait_1s>
800007e8:	00000000 	nop
800007ec:	3c028000 	lui	v0,0x8000
800007f0:	2442674c 	addiu	v0,v0,26444
800007f4:	0040f809 	jalr	v0
800007f8:	00000000 	nop
800007fc:	0c00028f 	jal	80000a3c <wait_1s>
80000800:	00000000 	nop
80000804:	3c028001 	lui	v0,0x8001
80000808:	2442f030 	addiu	v0,v0,-4048
8000080c:	0040f809 	jalr	v0
80000810:	00000000 	nop
80000814:	0c00028f 	jal	80000a3c <wait_1s>
80000818:	00000000 	nop
8000081c:	3c028001 	lui	v0,0x8001
80000820:	244291bc 	addiu	v0,v0,-28228
80000824:	0040f809 	jalr	v0
80000828:	00000000 	nop
8000082c:	0c00028f 	jal	80000a3c <wait_1s>
80000830:	00000000 	nop
80000834:	3c028001 	lui	v0,0x8001
80000838:	2442930c 	addiu	v0,v0,-27892
8000083c:	0040f809 	jalr	v0
80000840:	00000000 	nop
80000844:	0c00028f 	jal	80000a3c <wait_1s>
80000848:	00000000 	nop
8000084c:	3c028000 	lui	v0,0x8000
80000850:	24426954 	addiu	v0,v0,26964
80000854:	0040f809 	jalr	v0
80000858:	00000000 	nop
8000085c:	0c00028f 	jal	80000a3c <wait_1s>
80000860:	00000000 	nop
80000864:	3c028001 	lui	v0,0x8001
80000868:	2442ede0 	addiu	v0,v0,-4640
8000086c:	0040f809 	jalr	v0
80000870:	00000000 	nop
80000874:	0c00028f 	jal	80000a3c <wait_1s>
80000878:	00000000 	nop
8000087c:	3c028001 	lui	v0,0x8001
80000880:	2442eef8 	addiu	v0,v0,-4360
80000884:	0040f809 	jalr	v0
80000888:	00000000 	nop
8000088c:	0c00028f 	jal	80000a3c <wait_1s>
80000890:	00000000 	nop
80000894:	3c028001 	lui	v0,0x8001
80000898:	2442f13c 	addiu	v0,v0,-3780
8000089c:	0040f809 	jalr	v0
800008a0:	00000000 	nop
800008a4:	0c00028f 	jal	80000a3c <wait_1s>
800008a8:	00000000 	nop
800008ac:	3c028001 	lui	v0,0x8001
800008b0:	2442a794 	addiu	v0,v0,-22636
800008b4:	0040f809 	jalr	v0
800008b8:	00000000 	nop
800008bc:	0c00028f 	jal	80000a3c <wait_1s>
800008c0:	00000000 	nop
800008c4:	3c028000 	lui	v0,0x8000
800008c8:	2442684c 	addiu	v0,v0,26700
800008cc:	0040f809 	jalr	v0
800008d0:	00000000 	nop
800008d4:	0c00028f 	jal	80000a3c <wait_1s>
800008d8:	00000000 	nop
800008dc:	3c028001 	lui	v0,0x8001
800008e0:	24421a58 	addiu	v0,v0,6744
800008e4:	0040f809 	jalr	v0
800008e8:	00000000 	nop
800008ec:	0c00028f 	jal	80000a3c <wait_1s>
800008f0:	00000000 	nop
800008f4:	3c028001 	lui	v0,0x8001
800008f8:	2442da88 	addiu	v0,v0,-9592
800008fc:	0040f809 	jalr	v0
80000900:	00000000 	nop
80000904:	0c00028f 	jal	80000a3c <wait_1s>
80000908:	00000000 	nop
8000090c:	3c028000 	lui	v0,0x8000
80000910:	24424908 	addiu	v0,v0,18696
80000914:	0040f809 	jalr	v0
80000918:	00000000 	nop
8000091c:	0c00028f 	jal	80000a3c <wait_1s>
80000920:	00000000 	nop
80000924:	3c028001 	lui	v0,0x8001
80000928:	2442b2fc 	addiu	v0,v0,-19716
8000092c:	0040f809 	jalr	v0
80000930:	00000000 	nop
80000934:	0c00028f 	jal	80000a3c <wait_1s>
80000938:	00000000 	nop
8000093c:	3c028001 	lui	v0,0x8001
80000940:	2442f1e8 	addiu	v0,v0,-3608
80000944:	0040f809 	jalr	v0
80000948:	00000000 	nop
8000094c:	0c00028f 	jal	80000a3c <wait_1s>
80000950:	00000000 	nop
80000954:	3c028001 	lui	v0,0x8001
80000958:	2442943c 	addiu	v0,v0,-27588
8000095c:	0040f809 	jalr	v0
80000960:	00000000 	nop
80000964:	0c00028f 	jal	80000a3c <wait_1s>
80000968:	00000000 	nop
8000096c:	3c028000 	lui	v0,0x8000
80000970:	24426a70 	addiu	v0,v0,27248
80000974:	0040f809 	jalr	v0
80000978:	00000000 	nop
8000097c:	0c00028f 	jal	80000a3c <wait_1s>
80000980:	00000000 	nop
80000984:	3c028001 	lui	v0,0x8001
80000988:	24420540 	addiu	v0,v0,1344
8000098c:	0040f809 	jalr	v0
80000990:	00000000 	nop
80000994:	0c00028f 	jal	80000a3c <wait_1s>
80000998:	00000000 	nop
8000099c:	3c028001 	lui	v0,0x8001
800009a0:	2442c654 	addiu	v0,v0,-14764
800009a4:	0040f809 	jalr	v0
800009a8:	00000000 	nop
800009ac:	0c00028f 	jal	80000a3c <wait_1s>
800009b0:	00000000 	nop
800009b4:	3c028001 	lui	v0,0x8001
800009b8:	24428804 	addiu	v0,v0,-30716
800009bc:	0040f809 	jalr	v0
800009c0:	00000000 	nop
800009c4:	0c00028f 	jal	80000a3c <wait_1s>
800009c8:	00000000 	nop
800009cc:	3c028000 	lui	v0,0x8000
800009d0:	24427dc8 	addiu	v0,v0,32200
800009d4:	0040f809 	jalr	v0
800009d8:	00000000 	nop
800009dc:	0c00028f 	jal	80000a3c <wait_1s>
800009e0:	00000000 	nop
800009e4:	3c028001 	lui	v0,0x8001
800009e8:	2442a894 	addiu	v0,v0,-22380
800009ec:	0040f809 	jalr	v0
800009f0:	00000000 	nop
800009f4:	0c00028f 	jal	80000a3c <wait_1s>
800009f8:	00000000 	nop
800009fc:	3c028000 	lui	v0,0x8000
80000a00:	24425c60 	addiu	v0,v0,23648
80000a04:	0040f809 	jalr	v0
80000a08:	00000000 	nop
80000a0c:	0c00028f 	jal	80000a3c <wait_1s>
80000a10:	00000000 	nop

80000a14 <test_end>:
80000a14:	2404005b 	li	a0,91
80000a18:	10930003 	beq	a0,s3,80000a28 <test_end+0x14>
80000a1c:	00000000 	nop
80000a20:	10000004 	b	80000a34 <test_end+0x20>
80000a24:	00000000 	nop
80000a28:	3c08bfd0 	lui	t0,0xbfd0
80000a2c:	3508f000 	ori	t0,t0,0xf000
80000a30:	ad000000 	sw	zero,0(t0)
80000a34:	1000ffff 	b	80000a34 <test_end+0x20>
80000a38:	00000000 	nop

80000a3c <wait_1s>:
80000a3c:	3c0800f0 	lui	t0,0xf0
80000a40:	2508ffff 	addiu	t0,t0,-1
80000a44:	1500fffe 	bnez	t0,80000a40 <wait_1s+0x4>
80000a48:	00000000 	nop
80000a4c:	03e00008 	jr	ra
80000a50:	00000000 	nop
80000a54:	00000000 	nop

80000a58 <n57_mtc0_test>:
80000a58:	3c043900 	lui	a0,0x3900
80000a5c:	24020000 	li	v0,0
80000a60:	3c08bfc0 	lui	t0,0xbfc0
80000a64:	3508ffff 	ori	t0,t0,0xffff
80000a68:	40096000 	mfc0	t1,c0_status
80000a6c:	40896000 	mtc0	t1,c0_status
80000a70:	40096800 	mfc0	t1,c0_cause
80000a74:	40896800 	mtc0	t1,c0_cause
80000a78:	40097000 	mfc0	t1,c0_epc
80000a7c:	40887000 	mtc0	t0,c0_epc
80000a80:	40107000 	mfc0	s0,c0_epc
80000a84:	40897000 	mtc0	t1,c0_epc
80000a88:	15100004 	bne	t0,s0,80000a9c <inst_error>
80000a8c:	00000000 	nop
80000a90:	14400002 	bnez	v0,80000a9c <inst_error>
80000a94:	00000000 	nop
80000a98:	26730001 	addiu	s3,s3,1

80000a9c <inst_error>:
80000a9c:	00934025 	or	t0,a0,s3
80000aa0:	ae280000 	sw	t0,0(s1)
80000aa4:	03e00008 	jr	ra
80000aa8:	00000000 	nop
80000aac:	00000000 	nop

80000ab0 <n39_jr_test>:
80000ab0:	3c042700 	lui	a0,0x2700
80000ab4:	24020000 	li	v0,0
80000ab8:	3c0cc21e 	lui	t4,0xc21e
80000abc:	358c6e78 	ori	t4,t4,0x6e78
80000ac0:	3c0d0e2e 	lui	t5,0xe2e
80000ac4:	35ada248 	ori	t5,t5,0xa248
80000ac8:	24100000 	li	s0,0
80000acc:	24120000 	li	s2,0
80000ad0:	3c088000 	lui	t0,0x8000
80000ad4:	25080ae8 	addiu	t0,t0,2792
80000ad8:	3c098000 	lui	t1,0x8000
80000adc:	25290b50 	addiu	t1,t1,2896
80000ae0:	1000000a 	b	80000b0c <n39_jr_test+0x5c>
80000ae4:	00000000 	nop
80000ae8:	3c10c21e 	lui	s0,0xc21e
80000aec:	36106e78 	ori	s0,s0,0x6e78
80000af0:	01200008 	jr	t1
80000af4:	00000000 	nop
80000af8:	10000017 	b	80000b58 <n39_jr_test+0xa8>
80000afc:	00000000 	nop
80000b00:	00000021 	move	zero,zero
80000b04:	00000021 	move	zero,zero
80000b08:	00000021 	move	zero,zero
80000b0c:	01000008 	jr	t0
80000b10:	00000000 	nop
80000b14:	10000010 	b	80000b58 <n39_jr_test+0xa8>
80000b18:	00000000 	nop
80000b1c:	00000021 	move	zero,zero
80000b20:	00000021 	move	zero,zero
80000b24:	00000021 	move	zero,zero
80000b28:	00000021 	move	zero,zero
80000b2c:	00000021 	move	zero,zero
80000b30:	00000021 	move	zero,zero
80000b34:	00000021 	move	zero,zero
80000b38:	00000021 	move	zero,zero
80000b3c:	00000021 	move	zero,zero
80000b40:	00000021 	move	zero,zero
80000b44:	00000021 	move	zero,zero
80000b48:	00000021 	move	zero,zero
80000b4c:	00000021 	move	zero,zero
80000b50:	3c120e2e 	lui	s2,0xe2e
80000b54:	3652a248 	ori	s2,s2,0xa248
80000b58:	00000000 	nop
80000b5c:	3c14c21e 	lui	s4,0xc21e
80000b60:	36946e78 	ori	s4,s4,0x6e78
80000b64:	16140008 	bne	s0,s4,80000b88 <inst_error>
80000b68:	00000000 	nop
80000b6c:	3c150e2e 	lui	s5,0xe2e
80000b70:	36b5a248 	ori	s5,s5,0xa248
80000b74:	16550004 	bne	s2,s5,80000b88 <inst_error>
80000b78:	00000000 	nop
80000b7c:	14400002 	bnez	v0,80000b88 <inst_error>
80000b80:	00000000 	nop
80000b84:	26730001 	addiu	s3,s3,1

80000b88 <inst_error>:
80000b88:	00934025 	or	t0,a0,s3
80000b8c:	ae280000 	sw	t0,0(s1)
80000b90:	03e00008 	jr	ra
80000b94:	00000000 	nop

80000b98 <n7_slt_test>:
80000b98:	3c040700 	lui	a0,0x700
80000b9c:	24020000 	li	v0,0
80000ba0:	3c087245 	lui	t0,0x7245
80000ba4:	3508316a 	ori	t0,t0,0x316a
80000ba8:	3c097835 	lui	t1,0x7835
80000bac:	352906f0 	ori	t1,t1,0x6f0
80000bb0:	0109802a 	slt	s0,t0,t1
80000bb4:	24120001 	li	s2,1
80000bb8:	16120004 	bne	s0,s2,80000bcc <inst_error>
80000bbc:	00000000 	nop
80000bc0:	14400002 	bnez	v0,80000bcc <inst_error>
80000bc4:	00000000 	nop
80000bc8:	26730001 	addiu	s3,s3,1

80000bcc <inst_error>:
80000bcc:	00934025 	or	t0,a0,s3
80000bd0:	ae280000 	sw	t0,0(s1)
80000bd4:	03e00008 	jr	ra
80000bd8:	00000000 	nop
80000bdc:	00000000 	nop

80000be0 <n47_lb_test>:
80000be0:	3c042f00 	lui	a0,0x2f00
80000be4:	24020000 	li	v0,0
80000be8:	3c09c83b 	lui	t1,0xc83b
80000bec:	35290be0 	ori	t1,t1,0xbe0
80000bf0:	3c088002 	lui	t0,0x8002
80000bf4:	35086760 	ori	t0,t0,0x6760
80000bf8:	240a37a1 	li	t2,14241
80000bfc:	240c37a0 	li	t4,14240
80000c00:	ad0937a0 	sw	t1,14240(t0)
80000c04:	811037a1 	lb	s0,14241(t0)
80000c08:	2412000b 	li	s2,11
80000c0c:	16120004 	bne	s0,s2,80000c20 <inst_error>
80000c10:	00000000 	nop
80000c14:	14400002 	bnez	v0,80000c20 <inst_error>
80000c18:	00000000 	nop
80000c1c:	26730001 	addiu	s3,s3,1

80000c20 <inst_error>:
80000c20:	00934025 	or	t0,a0,s3
80000c24:	ae280000 	sw	t0,0(s1)
80000c28:	03e00008 	jr	ra
80000c2c:	00000000 	nop

80000c30 <n4_addiu_test>:
80000c30:	3c040400 	lui	a0,0x400
80000c34:	24020000 	li	v0,0
80000c38:	3c08fb26 	lui	t0,0xfb26
80000c3c:	35083d10 	ori	t0,t0,0x3d10
80000c40:	3409ec96 	li	t1,0xec96
80000c44:	2510ec96 	addiu	s0,t0,-4970
80000c48:	3c12fb26 	lui	s2,0xfb26
80000c4c:	365229a6 	ori	s2,s2,0x29a6
80000c50:	16120004 	bne	s0,s2,80000c64 <inst_error>
80000c54:	00000000 	nop
80000c58:	14400002 	bnez	v0,80000c64 <inst_error>
80000c5c:	00000000 	nop
80000c60:	26730001 	addiu	s3,s3,1

80000c64 <inst_error>:
80000c64:	00934025 	or	t0,a0,s3
80000c68:	ae280000 	sw	t0,0(s1)
80000c6c:	03e00008 	jr	ra
80000c70:	00000000 	nop
80000c74:	00000000 	nop

80000c78 <n28_srlv_test>:
80000c78:	3c041c00 	lui	a0,0x1c00
80000c7c:	24020000 	li	v0,0
80000c80:	3c081f8f 	lui	t0,0x1f8f
80000c84:	35086000 	ori	t0,t0,0x6000
80000c88:	2409001c 	li	t1,28
80000c8c:	01288006 	srlv	s0,t0,t1
80000c90:	24120001 	li	s2,1
80000c94:	16120004 	bne	s0,s2,80000ca8 <inst_error>
80000c98:	00000000 	nop
80000c9c:	14400002 	bnez	v0,80000ca8 <inst_error>
80000ca0:	00000000 	nop
80000ca4:	26730001 	addiu	s3,s3,1

80000ca8 <inst_error>:
80000ca8:	00934025 	or	t0,a0,s3
80000cac:	ae280000 	sw	t0,0(s1)
80000cb0:	03e00008 	jr	ra
80000cb4:	00000000 	nop

80000cb8 <n2_addi_test>:
80000cb8:	3c040200 	lui	a0,0x200
80000cbc:	24020000 	li	v0,0
80000cc0:	3c080151 	lui	t0,0x151
80000cc4:	3508e5c0 	ori	t0,t0,0xe5c0
80000cc8:	3409b945 	li	t1,0xb945
80000ccc:	2110b945 	addi	s0,t0,-18107
80000cd0:	3c120151 	lui	s2,0x151
80000cd4:	36529f05 	ori	s2,s2,0x9f05
80000cd8:	16120004 	bne	s0,s2,80000cec <inst_error>
80000cdc:	00000000 	nop
80000ce0:	14400002 	bnez	v0,80000cec <inst_error>
80000ce4:	00000000 	nop
80000ce8:	26730001 	addiu	s3,s3,1

80000cec <inst_error>:
80000cec:	00934025 	or	t0,a0,s3
80000cf0:	ae280000 	sw	t0,0(s1)
80000cf4:	03e00008 	jr	ra
80000cf8:	00000000 	nop
80000cfc:	00000000 	nop

80000d00 <n42_mflo_test>:
80000d00:	3c042a00 	lui	a0,0x2a00
80000d04:	24020000 	li	v0,0
80000d08:	3c0808fc 	lui	t0,0x8fc
80000d0c:	01000013 	mtlo	t0
80000d10:	00008012 	mflo	s0
80000d14:	3c1208fc 	lui	s2,0x8fc
80000d18:	16120004 	bne	s0,s2,80000d2c <inst_error>
80000d1c:	00000000 	nop
80000d20:	14400002 	bnez	v0,80000d2c <inst_error>
80000d24:	00000000 	nop
80000d28:	26730001 	addiu	s3,s3,1

80000d2c <inst_error>:
80000d2c:	00934025 	or	t0,a0,s3
80000d30:	ae280000 	sw	t0,0(s1)
80000d34:	03e00008 	jr	ra
80000d38:	00000000 	nop
80000d3c:	00000000 	nop

80000d40 <n54_sw_test>:
80000d40:	3c043600 	lui	a0,0x3600
80000d44:	24020000 	li	v0,0
80000d48:	3c096175 	lui	t1,0x6175
80000d4c:	35294443 	ori	t1,t1,0x4443
80000d50:	3c088002 	lui	t0,0x8002
80000d54:	350877a0 	ori	t0,t0,0x77a0
80000d58:	240a7b14 	li	t2,31508
80000d5c:	240c7b14 	li	t4,31508
80000d60:	ad097b14 	sw	t1,31508(t0)
80000d64:	8d107b14 	lw	s0,31508(t0)
80000d68:	3c126175 	lui	s2,0x6175
80000d6c:	36524443 	ori	s2,s2,0x4443
80000d70:	16120004 	bne	s0,s2,80000d84 <inst_error>
80000d74:	00000000 	nop
80000d78:	14400002 	bnez	v0,80000d84 <inst_error>
80000d7c:	00000000 	nop
80000d80:	26730001 	addiu	s3,s3,1

80000d84 <inst_error>:
80000d84:	00934025 	or	t0,a0,s3
80000d88:	ae280000 	sw	t0,0(s1)
80000d8c:	03e00008 	jr	ra
80000d90:	00000000 	nop
80000d94:	00000000 	nop

80000d98 <n33_blez_test>:
80000d98:	3c042100 	lui	a0,0x2100
80000d9c:	24020000 	li	v0,0
80000da0:	3c0c6ad0 	lui	t4,0x6ad0
80000da4:	358ca0b8 	ori	t4,t4,0xa0b8
80000da8:	3c0d8f08 	lui	t5,0x8f08
80000dac:	35addb03 	ori	t5,t5,0xdb03
80000db0:	24100000 	li	s0,0
80000db4:	24120000 	li	s2,0
80000db8:	10000011 	b	80000e00 <n33_blez_test+0x68>
80000dbc:	00000000 	nop
80000dc0:	3c106ad0 	lui	s0,0x6ad0
80000dc4:	3610a0b8 	ori	s0,s0,0xa0b8
80000dc8:	19000017 	blez	t0,80000e28 <n33_blez_test+0x90>
80000dcc:	00000000 	nop
80000dd0:	10000017 	b	80000e30 <n33_blez_test+0x98>
80000dd4:	00000000 	nop
80000dd8:	00000021 	move	zero,zero
80000ddc:	00000021 	move	zero,zero
80000de0:	00000021 	move	zero,zero
80000de4:	00000021 	move	zero,zero
80000de8:	00000021 	move	zero,zero
80000dec:	00000021 	move	zero,zero
80000df0:	00000021 	move	zero,zero
80000df4:	00000021 	move	zero,zero
80000df8:	00000021 	move	zero,zero
80000dfc:	00000021 	move	zero,zero
80000e00:	3c0895b9 	lui	t0,0x95b9
80000e04:	3508206f 	ori	t0,t0,0x206f
80000e08:	1900ffed 	blez	t0,80000dc0 <n33_blez_test+0x28>
80000e0c:	00000000 	nop
80000e10:	10000007 	b	80000e30 <n33_blez_test+0x98>
80000e14:	00000000 	nop
80000e18:	00000021 	move	zero,zero
80000e1c:	00000021 	move	zero,zero
80000e20:	00000021 	move	zero,zero
80000e24:	00000021 	move	zero,zero
80000e28:	3c128f08 	lui	s2,0x8f08
80000e2c:	3652db03 	ori	s2,s2,0xdb03
80000e30:	00000000 	nop
80000e34:	3c146ad0 	lui	s4,0x6ad0
80000e38:	3694a0b8 	ori	s4,s4,0xa0b8
80000e3c:	16140008 	bne	s0,s4,80000e60 <inst_error>
80000e40:	00000000 	nop
80000e44:	3c158f08 	lui	s5,0x8f08
80000e48:	36b5db03 	ori	s5,s5,0xdb03
80000e4c:	16550004 	bne	s2,s5,80000e60 <inst_error>
80000e50:	00000000 	nop
80000e54:	14400002 	bnez	v0,80000e60 <inst_error>
80000e58:	00000000 	nop
80000e5c:	26730001 	addiu	s3,s3,1

80000e60 <inst_error>:
80000e60:	00934025 	or	t0,a0,s3
80000e64:	ae280000 	sw	t0,0(s1)
80000e68:	03e00008 	jr	ra
80000e6c:	00000000 	nop

80000e70 <n44_mtlo_test>:
80000e70:	3c042c00 	lui	a0,0x2c00
80000e74:	24020000 	li	v0,0
80000e78:	3c08c10d 	lui	t0,0xc10d
80000e7c:	350876f1 	ori	t0,t0,0x76f1
80000e80:	01000013 	mtlo	t0
80000e84:	00008012 	mflo	s0
80000e88:	3c12c10d 	lui	s2,0xc10d
80000e8c:	365276f1 	ori	s2,s2,0x76f1
80000e90:	16120004 	bne	s0,s2,80000ea4 <inst_error>
80000e94:	00000000 	nop
80000e98:	14400002 	bnez	v0,80000ea4 <inst_error>
80000e9c:	00000000 	nop
80000ea0:	26730001 	addiu	s3,s3,1

80000ea4 <inst_error>:
80000ea4:	00934025 	or	t0,a0,s3
80000ea8:	ae280000 	sw	t0,0(s1)
80000eac:	03e00008 	jr	ra
80000eb0:	00000000 	nop
80000eb4:	00000000 	nop

80000eb8 <n3_addu_test>:
80000eb8:	3c040300 	lui	a0,0x300
80000ebc:	24020000 	li	v0,0
80000ec0:	3c081ade 	lui	t0,0x1ade
80000ec4:	3508f300 	ori	t0,t0,0xf300
80000ec8:	3c0951dd 	lui	t1,0x51dd
80000ecc:	352958de 	ori	t1,t1,0x58de
80000ed0:	01098021 	addu	s0,t0,t1
80000ed4:	3c126cbc 	lui	s2,0x6cbc
80000ed8:	36524bde 	ori	s2,s2,0x4bde
80000edc:	16120004 	bne	s0,s2,80000ef0 <inst_error>
80000ee0:	00000000 	nop
80000ee4:	14400002 	bnez	v0,80000ef0 <inst_error>
80000ee8:	00000000 	nop
80000eec:	26730001 	addiu	s3,s3,1

80000ef0 <inst_error>:
80000ef0:	00934025 	or	t0,a0,s3
80000ef4:	ae280000 	sw	t0,0(s1)
80000ef8:	03e00008 	jr	ra
80000efc:	00000000 	nop

80000f00 <n40_jalr_test>:
80000f00:	3c042800 	lui	a0,0x2800
80000f04:	24020000 	li	v0,0
80000f08:	001fb021 	addu	s6,zero,ra
80000f0c:	3c0c6e6b 	lui	t4,0x6e6b
80000f10:	358c362a 	ori	t4,t4,0x362a
80000f14:	3c0d240b 	lui	t5,0x240b
80000f18:	35adaf26 	ori	t5,t5,0xaf26
80000f1c:	24100000 	li	s0,0
80000f20:	3c088000 	lui	t0,0x8000
80000f24:	25080f3c 	addiu	t0,t0,3900
80000f28:	3c098000 	lui	t1,0x8000
80000f2c:	25290f94 	addiu	t1,t1,3988
80000f30:	24120000 	li	s2,0
80000f34:	10000011 	b	80000f7c <n40_jalr_test+0x7c>
80000f38:	00000000 	nop
80000f3c:	3c106e6b 	lui	s0,0x6e6b
80000f40:	3610362a 	ori	s0,s0,0x362a
80000f44:	0120f809 	jalr	t1
80000f48:	00000000 	nop
80000f4c:	10000013 	b	80000f9c <n40_jalr_test+0x9c>
80000f50:	00000000 	nop
80000f54:	00000021 	move	zero,zero
80000f58:	00000021 	move	zero,zero
80000f5c:	00000021 	move	zero,zero
80000f60:	00000021 	move	zero,zero
80000f64:	00000021 	move	zero,zero
80000f68:	00000021 	move	zero,zero
80000f6c:	00000021 	move	zero,zero
80000f70:	00000021 	move	zero,zero
80000f74:	00000021 	move	zero,zero
80000f78:	00000021 	move	zero,zero
80000f7c:	0100f809 	jalr	t0
80000f80:	00000000 	nop
80000f84:	10000005 	b	80000f9c <n40_jalr_test+0x9c>
80000f88:	00000000 	nop
80000f8c:	00000021 	move	zero,zero
80000f90:	00000021 	move	zero,zero
80000f94:	3c12240b 	lui	s2,0x240b
80000f98:	3652af26 	ori	s2,s2,0xaf26
80000f9c:	001fa021 	addu	s4,zero,ra
80000fa0:	0016f821 	addu	ra,zero,s6
80000fa4:	3c158000 	lui	s5,0x8000
80000fa8:	26b50f44 	addiu	s5,s5,3908
80000fac:	3c0d6e6b 	lui	t5,0x6e6b
80000fb0:	35ad362a 	ori	t5,t5,0x362a
80000fb4:	160d000b 	bne	s0,t5,80000fe4 <inst_error>
80000fb8:	00000000 	nop
80000fbc:	3c0c240b 	lui	t4,0x240b
80000fc0:	358caf26 	ori	t4,t4,0xaf26
80000fc4:	164c0007 	bne	s2,t4,80000fe4 <inst_error>
80000fc8:	00000000 	nop
80000fcc:	26b50008 	addiu	s5,s5,8
80000fd0:	16950004 	bne	s4,s5,80000fe4 <inst_error>
80000fd4:	00000000 	nop
80000fd8:	14400002 	bnez	v0,80000fe4 <inst_error>
80000fdc:	00000000 	nop
80000fe0:	26730001 	addiu	s3,s3,1

80000fe4 <inst_error>:
80000fe4:	00934025 	or	t0,a0,s3
80000fe8:	ae280000 	sw	t0,0(s1)
80000fec:	03e00008 	jr	ra
80000ff0:	00000000 	nop
80000ff4:	00000000 	nop

80000ff8 <n46_syscall_test>:
80000ff8:	3c042e00 	lui	a0,0x2e00
80000ffc:	24020001 	li	v0,1

80001000 <syscall_pc>:
80001000:	0000000c 3c1000ff 14500002 00000000     ....<....P......
80001010:	26730001                                &s..

80001014 <inst_error>:
80001014:	00934025 	or	t0,a0,s3
80001018:	ae280000 	sw	t0,0(s1)
8000101c:	03e00008 	jr	ra
80001020:	00000000 	nop
80001024:	00000000 	nop

80001028 <n37_j_test>:
80001028:	3c042500 	lui	a0,0x2500
8000102c:	24020000 	li	v0,0
80001030:	3c0c42ea 	lui	t4,0x42ea
80001034:	358c6edf 	ori	t4,t4,0x6edf
80001038:	3c0d2407 	lui	t5,0x2407
8000103c:	35ad1ba8 	ori	t5,t5,0x1ba8
80001040:	24100000 	li	s0,0
80001044:	24120000 	li	s2,0
80001048:	1000000a 	b	80001074 <n37_j_test+0x4c>
8000104c:	00000000 	nop
80001050:	3c1042ea 	lui	s0,0x42ea
80001054:	36106edf 	ori	s0,s0,0x6edf
80001058:	08000428 	j	800010a0 <n37_j_test+0x78>
8000105c:	00000000 	nop
80001060:	10000011 	b	800010a8 <n37_j_test+0x80>
80001064:	00000000 	nop
80001068:	00000021 	move	zero,zero
8000106c:	00000021 	move	zero,zero
80001070:	00000021 	move	zero,zero
80001074:	08000414 	j	80001050 <n37_j_test+0x28>
80001078:	00000000 	nop
8000107c:	1000000a 	b	800010a8 <n37_j_test+0x80>
80001080:	00000000 	nop
80001084:	00000021 	move	zero,zero
80001088:	00000021 	move	zero,zero
8000108c:	00000021 	move	zero,zero
80001090:	00000021 	move	zero,zero
80001094:	00000021 	move	zero,zero
80001098:	00000021 	move	zero,zero
8000109c:	00000021 	move	zero,zero
800010a0:	3c122407 	lui	s2,0x2407
800010a4:	36521ba8 	ori	s2,s2,0x1ba8
800010a8:	00000000 	nop
800010ac:	3c1442ea 	lui	s4,0x42ea
800010b0:	36946edf 	ori	s4,s4,0x6edf
800010b4:	16140008 	bne	s0,s4,800010d8 <inst_error>
800010b8:	00000000 	nop
800010bc:	3c152407 	lui	s5,0x2407
800010c0:	36b51ba8 	ori	s5,s5,0x1ba8
800010c4:	16550004 	bne	s2,s5,800010d8 <inst_error>
800010c8:	00000000 	nop
800010cc:	14400002 	bnez	v0,800010d8 <inst_error>
800010d0:	00000000 	nop
800010d4:	26730001 	addiu	s3,s3,1

800010d8 <inst_error>:
800010d8:	00934025 	or	t0,a0,s3
800010dc:	ae280000 	sw	t0,0(s1)
800010e0:	03e00008 	jr	ra
800010e4:	00000000 	nop

800010e8 <n27_srl_test>:
800010e8:	3c041b00 	lui	a0,0x1b00
800010ec:	24020000 	li	v0,0
800010f0:	3c088e8f 	lui	t0,0x8e8f
800010f4:	3508fce0 	ori	t0,t0,0xfce0
800010f8:	24090002 	li	t1,2
800010fc:	00088082 	srl	s0,t0,0x2
80001100:	3c1223a3 	lui	s2,0x23a3
80001104:	3652ff38 	ori	s2,s2,0xff38
80001108:	16120004 	bne	s0,s2,8000111c <inst_error>
8000110c:	00000000 	nop
80001110:	14400002 	bnez	v0,8000111c <inst_error>
80001114:	00000000 	nop
80001118:	26730001 	addiu	s3,s3,1

8000111c <inst_error>:
8000111c:	00934025 	or	t0,a0,s3
80001120:	ae280000 	sw	t0,0(s1)
80001124:	03e00008 	jr	ra
80001128:	00000000 	nop
8000112c:	00000000 	nop

80001130 <n34_bltz_test>:
80001130:	3c042200 	lui	a0,0x2200
80001134:	24020000 	li	v0,0
80001138:	3c0c933a 	lui	t4,0x933a
8000113c:	358c7610 	ori	t4,t4,0x7610
80001140:	3c0dee03 	lui	t5,0xee03
80001144:	35ad4360 	ori	t5,t5,0x4360
80001148:	24100000 	li	s0,0
8000114c:	24120000 	li	s2,0
80001150:	10000010 	b	80001194 <n34_bltz_test+0x64>
80001154:	00000000 	nop
80001158:	3c10933a 	lui	s0,0x933a
8000115c:	36107610 	ori	s0,s0,0x7610
80001160:	0500001f 	bltz	t0,800011e0 <n34_bltz_test+0xb0>
80001164:	00000000 	nop
80001168:	1000001f 	b	800011e8 <n34_bltz_test+0xb8>
8000116c:	00000000 	nop
80001170:	00000021 	move	zero,zero
80001174:	00000021 	move	zero,zero
80001178:	00000021 	move	zero,zero
8000117c:	00000021 	move	zero,zero
80001180:	00000021 	move	zero,zero
80001184:	00000021 	move	zero,zero
80001188:	00000021 	move	zero,zero
8000118c:	00000021 	move	zero,zero
80001190:	00000021 	move	zero,zero
80001194:	3c089e0d 	lui	t0,0x9e0d
80001198:	35087d08 	ori	t0,t0,0x7d08
8000119c:	0500ffee 	bltz	t0,80001158 <n34_bltz_test+0x28>
800011a0:	00000000 	nop
800011a4:	10000010 	b	800011e8 <n34_bltz_test+0xb8>
800011a8:	00000000 	nop
800011ac:	00000021 	move	zero,zero
800011b0:	00000021 	move	zero,zero
800011b4:	00000021 	move	zero,zero
800011b8:	00000021 	move	zero,zero
800011bc:	00000021 	move	zero,zero
800011c0:	00000021 	move	zero,zero
800011c4:	00000021 	move	zero,zero
800011c8:	00000021 	move	zero,zero
800011cc:	00000021 	move	zero,zero
800011d0:	00000021 	move	zero,zero
800011d4:	00000021 	move	zero,zero
800011d8:	00000021 	move	zero,zero
800011dc:	00000021 	move	zero,zero
800011e0:	3c12ee03 	lui	s2,0xee03
800011e4:	36524360 	ori	s2,s2,0x4360
800011e8:	00000000 	nop
800011ec:	3c14933a 	lui	s4,0x933a
800011f0:	36947610 	ori	s4,s4,0x7610
800011f4:	16140008 	bne	s0,s4,80001218 <inst_error>
800011f8:	00000000 	nop
800011fc:	3c15ee03 	lui	s5,0xee03
80001200:	36b54360 	ori	s5,s5,0x4360
80001204:	16550004 	bne	s2,s5,80001218 <inst_error>
80001208:	00000000 	nop
8000120c:	14400002 	bnez	v0,80001218 <inst_error>
80001210:	00000000 	nop
80001214:	26730001 	addiu	s3,s3,1

80001218 <inst_error>:
80001218:	00934025 	or	t0,a0,s3
8000121c:	ae280000 	sw	t0,0(s1)
80001220:	03e00008 	jr	ra
80001224:	00000000 	nop

80001228 <n8_slti_test>:
80001228:	3c040800 	lui	a0,0x800
8000122c:	24020000 	li	v0,0
80001230:	3c08d9d1 	lui	t0,0xd9d1
80001234:	350829b5 	ori	t0,t0,0x29b5
80001238:	24090988 	li	t1,2440
8000123c:	29100988 	slti	s0,t0,2440
80001240:	24120001 	li	s2,1
80001244:	16120004 	bne	s0,s2,80001258 <inst_error>
80001248:	00000000 	nop
8000124c:	14400002 	bnez	v0,80001258 <inst_error>
80001250:	00000000 	nop
80001254:	26730001 	addiu	s3,s3,1

80001258 <inst_error>:
80001258:	00934025 	or	t0,a0,s3
8000125c:	ae280000 	sw	t0,0(s1)
80001260:	03e00008 	jr	ra
80001264:	00000000 	nop

80001268 <n1_add_test>:
80001268:	3c040100 	lui	a0,0x100
8000126c:	24020000 	li	v0,0
80001270:	3c080480 	lui	t0,0x480
80001274:	3508ff04 	ori	t0,t0,0xff04
80001278:	3c094093 	lui	t1,0x4093
8000127c:	35293204 	ori	t1,t1,0x3204
80001280:	01098020 	add	s0,t0,t1
80001284:	3c124514 	lui	s2,0x4514
80001288:	36523108 	ori	s2,s2,0x3108
8000128c:	16120004 	bne	s0,s2,800012a0 <inst_error>
80001290:	00000000 	nop
80001294:	14400002 	bnez	v0,800012a0 <inst_error>
80001298:	00000000 	nop
8000129c:	26730001 	addiu	s3,s3,1

800012a0 <inst_error>:
800012a0:	00934025 	or	t0,a0,s3
800012a4:	ae280000 	sw	t0,0(s1)
800012a8:	03e00008 	jr	ra
800012ac:	00000000 	nop

800012b0 <n5_sub_test>:
800012b0:	3c040500 	lui	a0,0x500
800012b4:	24020000 	li	v0,0
800012b8:	3c0814ff 	lui	t0,0x14ff
800012bc:	3508b0e6 	ori	t0,t0,0xb0e6
800012c0:	3c09088c 	lui	t1,0x88c
800012c4:	3529b248 	ori	t1,t1,0xb248
800012c8:	01098022 	sub	s0,t0,t1
800012cc:	3c120c72 	lui	s2,0xc72
800012d0:	3652fe9e 	ori	s2,s2,0xfe9e
800012d4:	16120004 	bne	s0,s2,800012e8 <inst_error>
800012d8:	00000000 	nop
800012dc:	14400002 	bnez	v0,800012e8 <inst_error>
800012e0:	00000000 	nop
800012e4:	26730001 	addiu	s3,s3,1

800012e8 <inst_error>:
800012e8:	00934025 	or	t0,a0,s3
800012ec:	ae280000 	sw	t0,0(s1)
800012f0:	03e00008 	jr	ra
800012f4:	00000000 	nop

800012f8 <n10_sltiu_test>:
800012f8:	3c040a00 	lui	a0,0xa00
800012fc:	24020000 	li	v0,0
80001300:	3c08c254 	lui	t0,0xc254
80001304:	3508e3d8 	ori	t0,t0,0xe3d8
80001308:	3409f469 	li	t1,0xf469
8000130c:	2d10f469 	sltiu	s0,t0,-2967
80001310:	24120001 	li	s2,1
80001314:	16120004 	bne	s0,s2,80001328 <inst_error>
80001318:	00000000 	nop
8000131c:	14400002 	bnez	v0,80001328 <inst_error>
80001320:	00000000 	nop
80001324:	26730001 	addiu	s3,s3,1

80001328 <inst_error>:
80001328:	00934025 	or	t0,a0,s3
8000132c:	ae280000 	sw	t0,0(s1)
80001330:	03e00008 	jr	ra
80001334:	00000000 	nop

80001338 <n18_nor_test>:
80001338:	3c041200 	lui	a0,0x1200
8000133c:	24020000 	li	v0,0
80001340:	3c08ad9c 	lui	t0,0xad9c
80001344:	3508c00e 	ori	t0,t0,0xc00e
80001348:	3c0938b7 	lui	t1,0x38b7
8000134c:	3529ec24 	ori	t1,t1,0xec24
80001350:	01098027 	nor	s0,t0,t1
80001354:	3c124240 	lui	s2,0x4240
80001358:	365213d1 	ori	s2,s2,0x13d1
8000135c:	16120004 	bne	s0,s2,80001370 <inst_error>
80001360:	00000000 	nop
80001364:	14400002 	bnez	v0,80001370 <inst_error>
80001368:	00000000 	nop
8000136c:	26730001 	addiu	s3,s3,1

80001370 <inst_error>:
80001370:	00934025 	or	t0,a0,s3
80001374:	ae280000 	sw	t0,0(s1)
80001378:	03e00008 	jr	ra
8000137c:	00000000 	nop

80001380 <n55_eret_test>:
80001380:	3c043700 	lui	a0,0x3700
80001384:	24020003 	li	v0,3
80001388:	3c087fff 	lui	t0,0x7fff
8000138c:	3508ffff 	ori	t0,t0,0xffff
80001390:	21087fff 	addi	t0,t0,32767
80001394:	3c021234 	lui	v0,0x1234
80001398:	3c028765 	lui	v0,0x8765
8000139c:	3c025678 	lui	v0,0x5678

800013a0 <eret_ret_pc>:
800013a0:	3c024321 3c100f0f 14500002 00000000     <.C!<....P......
800013b0:	26730001                                &s..

800013b4 <inst_error>:
800013b4:	00934025 	or	t0,a0,s3
800013b8:	ae280000 	sw	t0,0(s1)
800013bc:	03e00008 	jr	ra
800013c0:	00000000 	nop
800013c4:	00000000 	nop

800013c8 <n49_lh_test>:
800013c8:	3c043100 	lui	a0,0x3100
800013cc:	24020000 	li	v0,0
800013d0:	3c095184 	lui	t1,0x5184
800013d4:	35292560 	ori	t1,t1,0x2560
800013d8:	3c088002 	lui	t0,0x8002
800013dc:	35082bc4 	ori	t0,t0,0x2bc4
800013e0:	240a127c 	li	t2,4732
800013e4:	240c127c 	li	t4,4732
800013e8:	ad09127c 	sw	t1,4732(t0)
800013ec:	8510127c 	lh	s0,4732(t0)
800013f0:	24122560 	li	s2,9568
800013f4:	16120401 	bne	s0,s2,800023fc <inst_error>
800013f8:	00000000 	nop
800013fc:	3c092516 	lui	t1,0x2516
80001400:	3529116e 	ori	t1,t1,0x116e
80001404:	3c088002 	lui	t0,0x8002
80001408:	35082220 	ori	t0,t0,0x2220
8000140c:	340aa890 	li	t2,0xa890
80001410:	340ca890 	li	t4,0xa890
80001414:	3c010001 	lui	at,0x1
80001418:	00280821 	addu	at,at,t0
8000141c:	ac29a890 	sw	t1,-22384(at)
80001420:	3c100001 	lui	s0,0x1
80001424:	02088021 	addu	s0,s0,t0
80001428:	8610a890 	lh	s0,-22384(s0)
8000142c:	2412116e 	li	s2,4462
80001430:	161203f2 	bne	s0,s2,800023fc <inst_error>
80001434:	00000000 	nop
80001438:	3c094932 	lui	t1,0x4932
8000143c:	3529330c 	ori	t1,t1,0x330c
80001440:	3c088002 	lui	t0,0x8002
80001444:	35083810 	ori	t0,t0,0x3810
80001448:	340a8526 	li	t2,0x8526
8000144c:	340c8524 	li	t4,0x8524
80001450:	3c010001 	lui	at,0x1
80001454:	00280821 	addu	at,at,t0
80001458:	ac298524 	sw	t1,-31452(at)
8000145c:	3c100001 	lui	s0,0x1
80001460:	02088021 	addu	s0,s0,t0
80001464:	86108526 	lh	s0,-31450(s0)
80001468:	24124932 	li	s2,18738
8000146c:	161203e3 	bne	s0,s2,800023fc <inst_error>
80001470:	00000000 	nop
80001474:	3c09be4d 	lui	t1,0xbe4d
80001478:	35299ac8 	ori	t1,t1,0x9ac8
8000147c:	3c088002 	lui	t0,0x8002
80001480:	3508ac60 	ori	t0,t0,0xac60
80001484:	240a0092 	li	t2,146
80001488:	240c0090 	li	t4,144
8000148c:	ad090090 	sw	t1,144(t0)
80001490:	85100092 	lh	s0,146(t0)
80001494:	2412be4d 	li	s2,-16819
80001498:	161203d8 	bne	s0,s2,800023fc <inst_error>
8000149c:	00000000 	nop
800014a0:	3c095f0c 	lui	t1,0x5f0c
800014a4:	35290856 	ori	t1,t1,0x856
800014a8:	3c088002 	lui	t0,0x8002
800014ac:	35081800 	ori	t0,t0,0x1800
800014b0:	340a8964 	li	t2,0x8964
800014b4:	340c8964 	li	t4,0x8964
800014b8:	3c010001 	lui	at,0x1
800014bc:	00280821 	addu	at,at,t0
800014c0:	ac298964 	sw	t1,-30364(at)
800014c4:	3c100001 	lui	s0,0x1
800014c8:	02088021 	addu	s0,s0,t0
800014cc:	86108964 	lh	s0,-30364(s0)
800014d0:	24120856 	li	s2,2134
800014d4:	161203c9 	bne	s0,s2,800023fc <inst_error>
800014d8:	00000000 	nop
800014dc:	3c09bfa5 	lui	t1,0xbfa5
800014e0:	3529bc80 	ori	t1,t1,0xbc80
800014e4:	3c088002 	lui	t0,0x8002
800014e8:	35089ca0 	ori	t0,t0,0x9ca0
800014ec:	240a2950 	li	t2,10576
800014f0:	240c2950 	li	t4,10576
800014f4:	ad092950 	sw	t1,10576(t0)
800014f8:	85102950 	lh	s0,10576(t0)
800014fc:	2412bc80 	li	s2,-17280
80001500:	161203be 	bne	s0,s2,800023fc <inst_error>
80001504:	00000000 	nop
80001508:	3c0967b0 	lui	t1,0x67b0
8000150c:	3529ca80 	ori	t1,t1,0xca80
80001510:	3c088002 	lui	t0,0x8002
80001514:	3508b258 	ori	t0,t0,0xb258
80001518:	240a2f74 	li	t2,12148
8000151c:	240c2f74 	li	t4,12148
80001520:	ad092f74 	sw	t1,12148(t0)
80001524:	85102f74 	lh	s0,12148(t0)
80001528:	2412ca80 	li	s2,-13696
8000152c:	161203b3 	bne	s0,s2,800023fc <inst_error>
80001530:	00000000 	nop
80001534:	3c09b0c4 	lui	t1,0xb0c4
80001538:	3529ee88 	ori	t1,t1,0xee88
8000153c:	3c088002 	lui	t0,0x8002
80001540:	35080a08 	ori	t0,t0,0xa08
80001544:	240a29d4 	li	t2,10708
80001548:	240c29d4 	li	t4,10708
8000154c:	ad0929d4 	sw	t1,10708(t0)
80001550:	851029d4 	lh	s0,10708(t0)
80001554:	2412ee88 	li	s2,-4472
80001558:	161203a8 	bne	s0,s2,800023fc <inst_error>
8000155c:	00000000 	nop
80001560:	3c09a28f 	lui	t1,0xa28f
80001564:	3529bedc 	ori	t1,t1,0xbedc
80001568:	3c088002 	lui	t0,0x8002
8000156c:	3508130c 	ori	t0,t0,0x130c
80001570:	340acf28 	li	t2,0xcf28
80001574:	340ccf28 	li	t4,0xcf28
80001578:	3c010001 	lui	at,0x1
8000157c:	00280821 	addu	at,at,t0
80001580:	ac29cf28 	sw	t1,-12504(at)
80001584:	3c100001 	lui	s0,0x1
80001588:	02088021 	addu	s0,s0,t0
8000158c:	8610cf28 	lh	s0,-12504(s0)
80001590:	2412bedc 	li	s2,-16676
80001594:	16120399 	bne	s0,s2,800023fc <inst_error>
80001598:	00000000 	nop
8000159c:	3c090158 	lui	t1,0x158
800015a0:	35299400 	ori	t1,t1,0x9400
800015a4:	3c088002 	lui	t0,0x8002
800015a8:	35083568 	ori	t0,t0,0x3568
800015ac:	340a9f36 	li	t2,0x9f36
800015b0:	340c9f34 	li	t4,0x9f34
800015b4:	3c010001 	lui	at,0x1
800015b8:	00280821 	addu	at,at,t0
800015bc:	ac299f34 	sw	t1,-24780(at)
800015c0:	3c100001 	lui	s0,0x1
800015c4:	02088021 	addu	s0,s0,t0
800015c8:	86109f36 	lh	s0,-24778(s0)
800015cc:	24120158 	li	s2,344
800015d0:	1612038a 	bne	s0,s2,800023fc <inst_error>
800015d4:	00000000 	nop
800015d8:	3c092048 	lui	t1,0x2048
800015dc:	35293e02 	ori	t1,t1,0x3e02
800015e0:	3c088002 	lui	t0,0x8002
800015e4:	3508d600 	ori	t0,t0,0xd600
800015e8:	240a1e7c 	li	t2,7804
800015ec:	240c1e7c 	li	t4,7804
800015f0:	ad091e7c 	sw	t1,7804(t0)
800015f4:	85101e7c 	lh	s0,7804(t0)
800015f8:	24123e02 	li	s2,15874
800015fc:	1612037f 	bne	s0,s2,800023fc <inst_error>
80001600:	00000000 	nop
80001604:	3c096171 	lui	t1,0x6171
80001608:	35298b00 	ori	t1,t1,0x8b00
8000160c:	3c088002 	lui	t0,0x8002
80001610:	35088550 	ori	t0,t0,0x8550
80001614:	240a24e0 	li	t2,9440
80001618:	240c24e0 	li	t4,9440
8000161c:	ad0924e0 	sw	t1,9440(t0)
80001620:	851024e0 	lh	s0,9440(t0)
80001624:	24128b00 	li	s2,-29952
80001628:	16120374 	bne	s0,s2,800023fc <inst_error>
8000162c:	00000000 	nop
80001630:	3c09b204 	lui	t1,0xb204
80001634:	35294740 	ori	t1,t1,0x4740
80001638:	3c088002 	lui	t0,0x8002
8000163c:	35081a30 	ori	t0,t0,0x1a30
80001640:	240a6d88 	li	t2,28040
80001644:	240c6d88 	li	t4,28040
80001648:	ad096d88 	sw	t1,28040(t0)
8000164c:	85106d88 	lh	s0,28040(t0)
80001650:	24124740 	li	s2,18240
80001654:	16120369 	bne	s0,s2,800023fc <inst_error>
80001658:	00000000 	nop
8000165c:	3c096dbe 	lui	t1,0x6dbe
80001660:	352993b6 	ori	t1,t1,0x93b6
80001664:	3c088002 	lui	t0,0x8002
80001668:	35082a08 	ori	t0,t0,0x2a08
8000166c:	240a13e0 	li	t2,5088
80001670:	240c13e0 	li	t4,5088
80001674:	ad0913e0 	sw	t1,5088(t0)
80001678:	851013e0 	lh	s0,5088(t0)
8000167c:	241293b6 	li	s2,-27722
80001680:	1612035e 	bne	s0,s2,800023fc <inst_error>
80001684:	00000000 	nop
80001688:	3c09e96e 	lui	t1,0xe96e
8000168c:	35297db0 	ori	t1,t1,0x7db0
80001690:	3c088002 	lui	t0,0x8002
80001694:	350825e8 	ori	t0,t0,0x25e8
80001698:	340ab50a 	li	t2,0xb50a
8000169c:	340cb508 	li	t4,0xb508
800016a0:	3c010001 	lui	at,0x1
800016a4:	00280821 	addu	at,at,t0
800016a8:	ac29b508 	sw	t1,-19192(at)
800016ac:	3c100001 	lui	s0,0x1
800016b0:	02088021 	addu	s0,s0,t0
800016b4:	8610b50a 	lh	s0,-19190(s0)
800016b8:	2412e96e 	li	s2,-5778
800016bc:	1612034f 	bne	s0,s2,800023fc <inst_error>
800016c0:	00000000 	nop
800016c4:	3c096737 	lui	t1,0x6737
800016c8:	3529a118 	ori	t1,t1,0xa118
800016cc:	3c088002 	lui	t0,0x8002
800016d0:	35084f78 	ori	t0,t0,0x4f78
800016d4:	240a4fae 	li	t2,20398
800016d8:	240c4fac 	li	t4,20396
800016dc:	ad094fac 	sw	t1,20396(t0)
800016e0:	85104fae 	lh	s0,20398(t0)
800016e4:	24126737 	li	s2,26423
800016e8:	16120344 	bne	s0,s2,800023fc <inst_error>
800016ec:	00000000 	nop
800016f0:	3c092fec 	lui	t1,0x2fec
800016f4:	35297a40 	ori	t1,t1,0x7a40
800016f8:	3c088002 	lui	t0,0x8002
800016fc:	35085228 	ori	t0,t0,0x5228
80001700:	340aa466 	li	t2,0xa466
80001704:	340ca464 	li	t4,0xa464
80001708:	3c010001 	lui	at,0x1
8000170c:	00280821 	addu	at,at,t0
80001710:	ac29a464 	sw	t1,-23452(at)
80001714:	3c100001 	lui	s0,0x1
80001718:	02088021 	addu	s0,s0,t0
8000171c:	8610a466 	lh	s0,-23450(s0)
80001720:	24122fec 	li	s2,12268
80001724:	16120335 	bne	s0,s2,800023fc <inst_error>
80001728:	00000000 	nop
8000172c:	3c095805 	lui	t1,0x5805
80001730:	3529df3d 	ori	t1,t1,0xdf3d
80001734:	3c088002 	lui	t0,0x8002
80001738:	3508e870 	ori	t0,t0,0xe870
8000173c:	240a0454 	li	t2,1108
80001740:	240c0454 	li	t4,1108
80001744:	ad090454 	sw	t1,1108(t0)
80001748:	85100454 	lh	s0,1108(t0)
8000174c:	2412df3d 	li	s2,-8387
80001750:	1612032a 	bne	s0,s2,800023fc <inst_error>
80001754:	00000000 	nop
80001758:	3c094ea0 	lui	t1,0x4ea0
8000175c:	3529d20c 	ori	t1,t1,0xd20c
80001760:	3c088002 	lui	t0,0x8002
80001764:	35082194 	ori	t0,t0,0x2194
80001768:	340ad7c8 	li	t2,0xd7c8
8000176c:	340cd7c8 	li	t4,0xd7c8
80001770:	3c010001 	lui	at,0x1
80001774:	00280821 	addu	at,at,t0
80001778:	ac29d7c8 	sw	t1,-10296(at)
8000177c:	3c100001 	lui	s0,0x1
80001780:	02088021 	addu	s0,s0,t0
80001784:	8610d7c8 	lh	s0,-10296(s0)
80001788:	2412d20c 	li	s2,-11764
8000178c:	1612031b 	bne	s0,s2,800023fc <inst_error>
80001790:	00000000 	nop
80001794:	3c097bf8 	lui	t1,0x7bf8
80001798:	3529d942 	ori	t1,t1,0xd942
8000179c:	3c088002 	lui	t0,0x8002
800017a0:	35085d50 	ori	t0,t0,0x5d50
800017a4:	340aa000 	li	t2,0xa000
800017a8:	340ca000 	li	t4,0xa000
800017ac:	3c010001 	lui	at,0x1
800017b0:	00280821 	addu	at,at,t0
800017b4:	ac29a000 	sw	t1,-24576(at)
800017b8:	3c100001 	lui	s0,0x1
800017bc:	02088021 	addu	s0,s0,t0
800017c0:	8610a000 	lh	s0,-24576(s0)
800017c4:	2412d942 	li	s2,-9918
800017c8:	1612030c 	bne	s0,s2,800023fc <inst_error>
800017cc:	00000000 	nop
800017d0:	3c0937ee 	lui	t1,0x37ee
800017d4:	3529910e 	ori	t1,t1,0x910e
800017d8:	3c088002 	lui	t0,0x8002
800017dc:	350897f0 	ori	t0,t0,0x97f0
800017e0:	240a0174 	li	t2,372
800017e4:	240c0174 	li	t4,372
800017e8:	ad090174 	sw	t1,372(t0)
800017ec:	85100174 	lh	s0,372(t0)
800017f0:	2412910e 	li	s2,-28402
800017f4:	16120301 	bne	s0,s2,800023fc <inst_error>
800017f8:	00000000 	nop
800017fc:	3c090259 	lui	t1,0x259
80001800:	35293920 	ori	t1,t1,0x3920
80001804:	3c088002 	lui	t0,0x8002
80001808:	350823b8 	ori	t0,t0,0x23b8
8000180c:	340ab00c 	li	t2,0xb00c
80001810:	340cb00c 	li	t4,0xb00c
80001814:	3c010001 	lui	at,0x1
80001818:	00280821 	addu	at,at,t0
8000181c:	ac29b00c 	sw	t1,-20468(at)
80001820:	3c100001 	lui	s0,0x1
80001824:	02088021 	addu	s0,s0,t0
80001828:	8610b00c 	lh	s0,-20468(s0)
8000182c:	24123920 	li	s2,14624
80001830:	161202f2 	bne	s0,s2,800023fc <inst_error>
80001834:	00000000 	nop
80001838:	3c09b7e2 	lui	t1,0xb7e2
8000183c:	35291268 	ori	t1,t1,0x1268
80001840:	3c088002 	lui	t0,0x8002
80001844:	3508cba8 	ori	t0,t0,0xcba8
80001848:	240a221c 	li	t2,8732
8000184c:	240c221c 	li	t4,8732
80001850:	ad09221c 	sw	t1,8732(t0)
80001854:	8510221c 	lh	s0,8732(t0)
80001858:	24121268 	li	s2,4712
8000185c:	161202e7 	bne	s0,s2,800023fc <inst_error>
80001860:	00000000 	nop
80001864:	3c090074 	lui	t1,0x74
80001868:	3529b9d0 	ori	t1,t1,0xb9d0
8000186c:	3c088002 	lui	t0,0x8002
80001870:	350817a8 	ori	t0,t0,0x17a8
80001874:	340ac28c 	li	t2,0xc28c
80001878:	340cc28c 	li	t4,0xc28c
8000187c:	3c010001 	lui	at,0x1
80001880:	00280821 	addu	at,at,t0
80001884:	ac29c28c 	sw	t1,-15732(at)
80001888:	3c100001 	lui	s0,0x1
8000188c:	02088021 	addu	s0,s0,t0
80001890:	8610c28c 	lh	s0,-15732(s0)
80001894:	2412b9d0 	li	s2,-17968
80001898:	161202d8 	bne	s0,s2,800023fc <inst_error>
8000189c:	00000000 	nop
800018a0:	3c091326 	lui	t1,0x1326
800018a4:	3529e800 	ori	t1,t1,0xe800
800018a8:	3c088002 	lui	t0,0x8002
800018ac:	35080848 	ori	t0,t0,0x848
800018b0:	340a816e 	li	t2,0x816e
800018b4:	340c816c 	li	t4,0x816c
800018b8:	3c010001 	lui	at,0x1
800018bc:	00280821 	addu	at,at,t0
800018c0:	ac29816c 	sw	t1,-32404(at)
800018c4:	3c100001 	lui	s0,0x1
800018c8:	02088021 	addu	s0,s0,t0
800018cc:	8610816e 	lh	s0,-32402(s0)
800018d0:	24121326 	li	s2,4902
800018d4:	161202c9 	bne	s0,s2,800023fc <inst_error>
800018d8:	00000000 	nop
800018dc:	3c09b42e 	lui	t1,0xb42e
800018e0:	35295a40 	ori	t1,t1,0x5a40
800018e4:	3c088002 	lui	t0,0x8002
800018e8:	35083b34 	ori	t0,t0,0x3b34
800018ec:	240a14d8 	li	t2,5336
800018f0:	240c14d8 	li	t4,5336
800018f4:	ad0914d8 	sw	t1,5336(t0)
800018f8:	851014d8 	lh	s0,5336(t0)
800018fc:	24125a40 	li	s2,23104
80001900:	161202be 	bne	s0,s2,800023fc <inst_error>
80001904:	00000000 	nop
80001908:	3c09783e 	lui	t1,0x783e
8000190c:	35290a00 	ori	t1,t1,0xa00
80001910:	3c088002 	lui	t0,0x8002
80001914:	35087838 	ori	t0,t0,0x7838
80001918:	240a2c3c 	li	t2,11324
8000191c:	240c2c3c 	li	t4,11324
80001920:	ad092c3c 	sw	t1,11324(t0)
80001924:	85102c3c 	lh	s0,11324(t0)
80001928:	24120a00 	li	s2,2560
8000192c:	161202b3 	bne	s0,s2,800023fc <inst_error>
80001930:	00000000 	nop
80001934:	3c09d694 	lui	t1,0xd694
80001938:	35292958 	ori	t1,t1,0x2958
8000193c:	3c088002 	lui	t0,0x8002
80001940:	350853a8 	ori	t0,t0,0x53a8
80001944:	240a564a 	li	t2,22090
80001948:	240c5648 	li	t4,22088
8000194c:	ad095648 	sw	t1,22088(t0)
80001950:	8510564a 	lh	s0,22090(t0)
80001954:	2412d694 	li	s2,-10604
80001958:	161202a8 	bne	s0,s2,800023fc <inst_error>
8000195c:	00000000 	nop
80001960:	3c099d23 	lui	t1,0x9d23
80001964:	35297d60 	ori	t1,t1,0x7d60
80001968:	3c088002 	lui	t0,0x8002
8000196c:	35080600 	ori	t0,t0,0x600
80001970:	240a590c 	li	t2,22796
80001974:	240c590c 	li	t4,22796
80001978:	ad09590c 	sw	t1,22796(t0)
8000197c:	8510590c 	lh	s0,22796(t0)
80001980:	24127d60 	li	s2,32096
80001984:	1612029d 	bne	s0,s2,800023fc <inst_error>
80001988:	00000000 	nop
8000198c:	3c09098f 	lui	t1,0x98f
80001990:	35292730 	ori	t1,t1,0x2730
80001994:	3c088002 	lui	t0,0x8002
80001998:	35081b58 	ori	t0,t0,0x1b58
8000199c:	340a88a8 	li	t2,0x88a8
800019a0:	340c88a8 	li	t4,0x88a8
800019a4:	3c010001 	lui	at,0x1
800019a8:	00280821 	addu	at,at,t0
800019ac:	ac2988a8 	sw	t1,-30552(at)
800019b0:	3c100001 	lui	s0,0x1
800019b4:	02088021 	addu	s0,s0,t0
800019b8:	861088a8 	lh	s0,-30552(s0)
800019bc:	24122730 	li	s2,10032
800019c0:	1612028e 	bne	s0,s2,800023fc <inst_error>
800019c4:	00000000 	nop
800019c8:	3c092ab8 	lui	t1,0x2ab8
800019cc:	3529ce90 	ori	t1,t1,0xce90
800019d0:	3c088002 	lui	t0,0x8002
800019d4:	350831ec 	ori	t0,t0,0x31ec
800019d8:	240a38d0 	li	t2,14544
800019dc:	240c38d0 	li	t4,14544
800019e0:	ad0938d0 	sw	t1,14544(t0)
800019e4:	851038d0 	lh	s0,14544(t0)
800019e8:	2412ce90 	li	s2,-12656
800019ec:	16120283 	bne	s0,s2,800023fc <inst_error>
800019f0:	00000000 	nop
800019f4:	3c0937fd 	lui	t1,0x37fd
800019f8:	3529bec8 	ori	t1,t1,0xbec8
800019fc:	3c088002 	lui	t0,0x8002
80001a00:	35084890 	ori	t0,t0,0x4890
80001a04:	240a5bd2 	li	t2,23506
80001a08:	240c5bd0 	li	t4,23504
80001a0c:	ad095bd0 	sw	t1,23504(t0)
80001a10:	85105bd2 	lh	s0,23506(t0)
80001a14:	241237fd 	li	s2,14333
80001a18:	16120278 	bne	s0,s2,800023fc <inst_error>
80001a1c:	00000000 	nop
80001a20:	3c0934fc 	lui	t1,0x34fc
80001a24:	352933ac 	ori	t1,t1,0x33ac
80001a28:	3c088002 	lui	t0,0x8002
80001a2c:	35085448 	ori	t0,t0,0x5448
80001a30:	240a16d2 	li	t2,5842
80001a34:	240c16d0 	li	t4,5840
80001a38:	ad0916d0 	sw	t1,5840(t0)
80001a3c:	851016d2 	lh	s0,5842(t0)
80001a40:	241234fc 	li	s2,13564
80001a44:	1612026d 	bne	s0,s2,800023fc <inst_error>
80001a48:	00000000 	nop
80001a4c:	3c09dcc1 	lui	t1,0xdcc1
80001a50:	352944c8 	ori	t1,t1,0x44c8
80001a54:	3c088002 	lui	t0,0x8002
80001a58:	35086940 	ori	t0,t0,0x6940
80001a5c:	240a673c 	li	t2,26428
80001a60:	240c673c 	li	t4,26428
80001a64:	ad09673c 	sw	t1,26428(t0)
80001a68:	8510673c 	lh	s0,26428(t0)
80001a6c:	241244c8 	li	s2,17608
80001a70:	16120262 	bne	s0,s2,800023fc <inst_error>
80001a74:	00000000 	nop
80001a78:	3c093354 	lui	t1,0x3354
80001a7c:	3529e5b4 	ori	t1,t1,0xe5b4
80001a80:	3c088002 	lui	t0,0x8002
80001a84:	35085834 	ori	t0,t0,0x5834
80001a88:	240a3926 	li	t2,14630
80001a8c:	240c3924 	li	t4,14628
80001a90:	ad093924 	sw	t1,14628(t0)
80001a94:	85103926 	lh	s0,14630(t0)
80001a98:	24123354 	li	s2,13140
80001a9c:	16120257 	bne	s0,s2,800023fc <inst_error>
80001aa0:	00000000 	nop
80001aa4:	3c09b5e7 	lui	t1,0xb5e7
80001aa8:	3529da8e 	ori	t1,t1,0xda8e
80001aac:	3c088002 	lui	t0,0x8002
80001ab0:	3508cc78 	ori	t0,t0,0xcc78
80001ab4:	240a0800 	li	t2,2048
80001ab8:	240c0800 	li	t4,2048
80001abc:	ad090800 	sw	t1,2048(t0)
80001ac0:	85100800 	lh	s0,2048(t0)
80001ac4:	2412da8e 	li	s2,-9586
80001ac8:	1612024c 	bne	s0,s2,800023fc <inst_error>
80001acc:	00000000 	nop
80001ad0:	3c098c87 	lui	t1,0x8c87
80001ad4:	3529a650 	ori	t1,t1,0xa650
80001ad8:	3c088002 	lui	t0,0x8002
80001adc:	35082d9c 	ori	t0,t0,0x2d9c
80001ae0:	240a6440 	li	t2,25664
80001ae4:	240c6440 	li	t4,25664
80001ae8:	ad096440 	sw	t1,25664(t0)
80001aec:	85106440 	lh	s0,25664(t0)
80001af0:	2412a650 	li	s2,-22960
80001af4:	16120241 	bne	s0,s2,800023fc <inst_error>
80001af8:	00000000 	nop
80001afc:	3c093df2 	lui	t1,0x3df2
80001b00:	35299bc0 	ori	t1,t1,0x9bc0
80001b04:	3c088003 	lui	t0,0x8003
80001b08:	340a834e 	li	t2,0x834e
80001b0c:	340c834c 	li	t4,0x834c
80001b10:	3c010001 	lui	at,0x1
80001b14:	00280821 	addu	at,at,t0
80001b18:	ac29834c 	sw	t1,-31924(at)
80001b1c:	3c100001 	lui	s0,0x1
80001b20:	02088021 	addu	s0,s0,t0
80001b24:	8610834e 	lh	s0,-31922(s0)
80001b28:	24123df2 	li	s2,15858
80001b2c:	16120233 	bne	s0,s2,800023fc <inst_error>
80001b30:	00000000 	nop
80001b34:	3c09975c 	lui	t1,0x975c
80001b38:	35293a5c 	ori	t1,t1,0x3a5c
80001b3c:	3c088003 	lui	t0,0x8003
80001b40:	340ae8cc 	li	t2,0xe8cc
80001b44:	340ce8cc 	li	t4,0xe8cc
80001b48:	3c010001 	lui	at,0x1
80001b4c:	00280821 	addu	at,at,t0
80001b50:	ac29e8cc 	sw	t1,-5940(at)
80001b54:	3c100001 	lui	s0,0x1
80001b58:	02088021 	addu	s0,s0,t0
80001b5c:	8610e8cc 	lh	s0,-5940(s0)
80001b60:	24123a5c 	li	s2,14940
80001b64:	16120225 	bne	s0,s2,800023fc <inst_error>
80001b68:	00000000 	nop
80001b6c:	3c0929ab 	lui	t1,0x29ab
80001b70:	352953d6 	ori	t1,t1,0x53d6
80001b74:	3c088003 	lui	t0,0x8003
80001b78:	340a89e8 	li	t2,0x89e8
80001b7c:	340c89e8 	li	t4,0x89e8
80001b80:	3c010001 	lui	at,0x1
80001b84:	00280821 	addu	at,at,t0
80001b88:	ac2989e8 	sw	t1,-30232(at)
80001b8c:	3c100001 	lui	s0,0x1
80001b90:	02088021 	addu	s0,s0,t0
80001b94:	861089e8 	lh	s0,-30232(s0)
80001b98:	241253d6 	li	s2,21462
80001b9c:	16120217 	bne	s0,s2,800023fc <inst_error>
80001ba0:	00000000 	nop
80001ba4:	3c09763b 	lui	t1,0x763b
80001ba8:	35292600 	ori	t1,t1,0x2600
80001bac:	3c088003 	lui	t0,0x8003
80001bb0:	240a3e7c 	li	t2,15996
80001bb4:	240c3e7c 	li	t4,15996
80001bb8:	ad093e7c 	sw	t1,15996(t0)
80001bbc:	85103e7c 	lh	s0,15996(t0)
80001bc0:	24122600 	li	s2,9728
80001bc4:	1612020d 	bne	s0,s2,800023fc <inst_error>
80001bc8:	00000000 	nop
80001bcc:	3c09774e 	lui	t1,0x774e
80001bd0:	3529d370 	ori	t1,t1,0xd370
80001bd4:	3c088003 	lui	t0,0x8003
80001bd8:	340aa760 	li	t2,0xa760
80001bdc:	340ca760 	li	t4,0xa760
80001be0:	3c010001 	lui	at,0x1
80001be4:	00280821 	addu	at,at,t0
80001be8:	ac29a760 	sw	t1,-22688(at)
80001bec:	3c100001 	lui	s0,0x1
80001bf0:	02088021 	addu	s0,s0,t0
80001bf4:	8610a760 	lh	s0,-22688(s0)
80001bf8:	2412d370 	li	s2,-11408
80001bfc:	161201ff 	bne	s0,s2,800023fc <inst_error>
80001c00:	00000000 	nop
80001c04:	3c098e24 	lui	t1,0x8e24
80001c08:	3529d680 	ori	t1,t1,0xd680
80001c0c:	3c088003 	lui	t0,0x8003
80001c10:	340affe0 	li	t2,0xffe0
80001c14:	340cffe0 	li	t4,0xffe0
80001c18:	3c010001 	lui	at,0x1
80001c1c:	00280821 	addu	at,at,t0
80001c20:	ac29ffe0 	sw	t1,-32(at)
80001c24:	3c100001 	lui	s0,0x1
80001c28:	02088021 	addu	s0,s0,t0
80001c2c:	8610ffe0 	lh	s0,-32(s0)
80001c30:	2412d680 	li	s2,-10624
80001c34:	161201f1 	bne	s0,s2,800023fc <inst_error>
80001c38:	00000000 	nop
80001c3c:	3c09fe39 	lui	t1,0xfe39
80001c40:	352936cb 	ori	t1,t1,0x36cb
80001c44:	3c088003 	lui	t0,0x8003
80001c48:	240a17b0 	li	t2,6064
80001c4c:	240c17b0 	li	t4,6064
80001c50:	ad0917b0 	sw	t1,6064(t0)
80001c54:	851017b0 	lh	s0,6064(t0)
80001c58:	241236cb 	li	s2,14027
80001c5c:	161201e7 	bne	s0,s2,800023fc <inst_error>
80001c60:	00000000 	nop
80001c64:	3c090b89 	lui	t1,0xb89
80001c68:	35292a40 	ori	t1,t1,0x2a40
80001c6c:	3c088003 	lui	t0,0x8003
80001c70:	340ab03a 	li	t2,0xb03a
80001c74:	340cb038 	li	t4,0xb038
80001c78:	3c010001 	lui	at,0x1
80001c7c:	00280821 	addu	at,at,t0
80001c80:	ac29b038 	sw	t1,-20424(at)
80001c84:	3c100001 	lui	s0,0x1
80001c88:	02088021 	addu	s0,s0,t0
80001c8c:	8610b03a 	lh	s0,-20422(s0)
80001c90:	24120b89 	li	s2,2953
80001c94:	161201d9 	bne	s0,s2,800023fc <inst_error>
80001c98:	00000000 	nop
80001c9c:	3c09d92f 	lui	t1,0xd92f
80001ca0:	3529e108 	ori	t1,t1,0xe108
80001ca4:	3c088003 	lui	t0,0x8003
80001ca8:	240a5d48 	li	t2,23880
80001cac:	240c5d48 	li	t4,23880
80001cb0:	ad095d48 	sw	t1,23880(t0)
80001cb4:	85105d48 	lh	s0,23880(t0)
80001cb8:	2412e108 	li	s2,-7928
80001cbc:	161201cf 	bne	s0,s2,800023fc <inst_error>
80001cc0:	00000000 	nop
80001cc4:	3c094c4b 	lui	t1,0x4c4b
80001cc8:	3529c954 	ori	t1,t1,0xc954
80001ccc:	3c088003 	lui	t0,0x8003
80001cd0:	240a2258 	li	t2,8792
80001cd4:	240c2258 	li	t4,8792
80001cd8:	ad092258 	sw	t1,8792(t0)
80001cdc:	85102258 	lh	s0,8792(t0)
80001ce0:	2412c954 	li	s2,-13996
80001ce4:	161201c5 	bne	s0,s2,800023fc <inst_error>
80001ce8:	00000000 	nop
80001cec:	3c09b7ba 	lui	t1,0xb7ba
80001cf0:	3529ba40 	ori	t1,t1,0xba40
80001cf4:	3c088003 	lui	t0,0x8003
80001cf8:	340aa106 	li	t2,0xa106
80001cfc:	340ca104 	li	t4,0xa104
80001d00:	3c010001 	lui	at,0x1
80001d04:	00280821 	addu	at,at,t0
80001d08:	ac29a104 	sw	t1,-24316(at)
80001d0c:	3c100001 	lui	s0,0x1
80001d10:	02088021 	addu	s0,s0,t0
80001d14:	8610a106 	lh	s0,-24314(s0)
80001d18:	2412b7ba 	li	s2,-18502
80001d1c:	161201b7 	bne	s0,s2,800023fc <inst_error>
80001d20:	00000000 	nop
80001d24:	3c098a75 	lui	t1,0x8a75
80001d28:	35294a34 	ori	t1,t1,0x4a34
80001d2c:	3c088003 	lui	t0,0x8003
80001d30:	240a53a8 	li	t2,21416
80001d34:	240c53a8 	li	t4,21416
80001d38:	ad0953a8 	sw	t1,21416(t0)
80001d3c:	851053a8 	lh	s0,21416(t0)
80001d40:	24124a34 	li	s2,18996
80001d44:	161201ad 	bne	s0,s2,800023fc <inst_error>
80001d48:	00000000 	nop
80001d4c:	3c09062c 	lui	t1,0x62c
80001d50:	35290990 	ori	t1,t1,0x990
80001d54:	3c088003 	lui	t0,0x8003
80001d58:	340ab7c0 	li	t2,0xb7c0
80001d5c:	340cb7c0 	li	t4,0xb7c0
80001d60:	3c010001 	lui	at,0x1
80001d64:	00280821 	addu	at,at,t0
80001d68:	ac29b7c0 	sw	t1,-18496(at)
80001d6c:	3c100001 	lui	s0,0x1
80001d70:	02088021 	addu	s0,s0,t0
80001d74:	8610b7c0 	lh	s0,-18496(s0)
80001d78:	24120990 	li	s2,2448
80001d7c:	1612019f 	bne	s0,s2,800023fc <inst_error>
80001d80:	00000000 	nop
80001d84:	3c09f3c0 	lui	t1,0xf3c0
80001d88:	3529fc50 	ori	t1,t1,0xfc50
80001d8c:	3c088003 	lui	t0,0x8003
80001d90:	340ae692 	li	t2,0xe692
80001d94:	340ce690 	li	t4,0xe690
80001d98:	3c010001 	lui	at,0x1
80001d9c:	00280821 	addu	at,at,t0
80001da0:	ac29e690 	sw	t1,-6512(at)
80001da4:	3c100001 	lui	s0,0x1
80001da8:	02088021 	addu	s0,s0,t0
80001dac:	8610e692 	lh	s0,-6510(s0)
80001db0:	2412f3c0 	li	s2,-3136
80001db4:	16120191 	bne	s0,s2,800023fc <inst_error>
80001db8:	00000000 	nop
80001dbc:	3c09941e 	lui	t1,0x941e
80001dc0:	35291b70 	ori	t1,t1,0x1b70
80001dc4:	3c088003 	lui	t0,0x8003
80001dc8:	340a9544 	li	t2,0x9544
80001dcc:	340c9544 	li	t4,0x9544
80001dd0:	3c010001 	lui	at,0x1
80001dd4:	00280821 	addu	at,at,t0
80001dd8:	ac299544 	sw	t1,-27324(at)
80001ddc:	3c100001 	lui	s0,0x1
80001de0:	02088021 	addu	s0,s0,t0
80001de4:	86109544 	lh	s0,-27324(s0)
80001de8:	24121b70 	li	s2,7024
80001dec:	16120183 	bne	s0,s2,800023fc <inst_error>
80001df0:	00000000 	nop
80001df4:	3c0906a8 	lui	t1,0x6a8
80001df8:	3529f600 	ori	t1,t1,0xf600
80001dfc:	3c088003 	lui	t0,0x8003
80001e00:	340ac14e 	li	t2,0xc14e
80001e04:	340cc14c 	li	t4,0xc14c
80001e08:	3c010001 	lui	at,0x1
80001e0c:	00280821 	addu	at,at,t0
80001e10:	ac29c14c 	sw	t1,-16052(at)
80001e14:	3c100001 	lui	s0,0x1
80001e18:	02088021 	addu	s0,s0,t0
80001e1c:	8610c14e 	lh	s0,-16050(s0)
80001e20:	241206a8 	li	s2,1704
80001e24:	16120175 	bne	s0,s2,800023fc <inst_error>
80001e28:	00000000 	nop
80001e2c:	3c09f0c9 	lui	t1,0xf0c9
80001e30:	3529f8c0 	ori	t1,t1,0xf8c0
80001e34:	3c088003 	lui	t0,0x8003
80001e38:	240a4156 	li	t2,16726
80001e3c:	240c4154 	li	t4,16724
80001e40:	ad094154 	sw	t1,16724(t0)
80001e44:	85104156 	lh	s0,16726(t0)
80001e48:	2412f0c9 	li	s2,-3895
80001e4c:	1612016b 	bne	s0,s2,800023fc <inst_error>
80001e50:	00000000 	nop
80001e54:	3c096d67 	lui	t1,0x6d67
80001e58:	3529df7c 	ori	t1,t1,0xdf7c
80001e5c:	3c088003 	lui	t0,0x8003
80001e60:	240a1ce6 	li	t2,7398
80001e64:	240c1ce4 	li	t4,7396
80001e68:	ad091ce4 	sw	t1,7396(t0)
80001e6c:	85101ce6 	lh	s0,7398(t0)
80001e70:	24126d67 	li	s2,28007
80001e74:	16120161 	bne	s0,s2,800023fc <inst_error>
80001e78:	00000000 	nop
80001e7c:	3c097b5c 	lui	t1,0x7b5c
80001e80:	35298c40 	ori	t1,t1,0x8c40
80001e84:	3c088003 	lui	t0,0x8003
80001e88:	340aa170 	li	t2,0xa170
80001e8c:	340ca170 	li	t4,0xa170
80001e90:	3c010001 	lui	at,0x1
80001e94:	00280821 	addu	at,at,t0
80001e98:	ac29a170 	sw	t1,-24208(at)
80001e9c:	3c100001 	lui	s0,0x1
80001ea0:	02088021 	addu	s0,s0,t0
80001ea4:	8610a170 	lh	s0,-24208(s0)
80001ea8:	24128c40 	li	s2,-29632
80001eac:	16120153 	bne	s0,s2,800023fc <inst_error>
80001eb0:	00000000 	nop
80001eb4:	3c09a01d 	lui	t1,0xa01d
80001eb8:	352988d6 	ori	t1,t1,0x88d6
80001ebc:	3c088003 	lui	t0,0x8003
80001ec0:	340af236 	li	t2,0xf236
80001ec4:	340cf234 	li	t4,0xf234
80001ec8:	3c010001 	lui	at,0x1
80001ecc:	00280821 	addu	at,at,t0
80001ed0:	ac29f234 	sw	t1,-3532(at)
80001ed4:	3c100001 	lui	s0,0x1
80001ed8:	02088021 	addu	s0,s0,t0
80001edc:	8610f236 	lh	s0,-3530(s0)
80001ee0:	2412a01d 	li	s2,-24547
80001ee4:	16120145 	bne	s0,s2,800023fc <inst_error>
80001ee8:	00000000 	nop
80001eec:	3c09bb91 	lui	t1,0xbb91
80001ef0:	3529715e 	ori	t1,t1,0x715e
80001ef4:	3c088003 	lui	t0,0x8003
80001ef8:	340aea5e 	li	t2,0xea5e
80001efc:	340cea5c 	li	t4,0xea5c
80001f00:	3c010001 	lui	at,0x1
80001f04:	00280821 	addu	at,at,t0
80001f08:	ac29ea5c 	sw	t1,-5540(at)
80001f0c:	3c100001 	lui	s0,0x1
80001f10:	02088021 	addu	s0,s0,t0
80001f14:	8610ea5e 	lh	s0,-5538(s0)
80001f18:	2412bb91 	li	s2,-17519
80001f1c:	16120137 	bne	s0,s2,800023fc <inst_error>
80001f20:	00000000 	nop
80001f24:	3c09a208 	lui	t1,0xa208
80001f28:	35296268 	ori	t1,t1,0x6268
80001f2c:	3c088003 	lui	t0,0x8003
80001f30:	340aae6c 	li	t2,0xae6c
80001f34:	340cae6c 	li	t4,0xae6c
80001f38:	3c010001 	lui	at,0x1
80001f3c:	00280821 	addu	at,at,t0
80001f40:	ac29ae6c 	sw	t1,-20884(at)
80001f44:	3c100001 	lui	s0,0x1
80001f48:	02088021 	addu	s0,s0,t0
80001f4c:	8610ae6c 	lh	s0,-20884(s0)
80001f50:	24126268 	li	s2,25192
80001f54:	16120129 	bne	s0,s2,800023fc <inst_error>
80001f58:	00000000 	nop
80001f5c:	3c09c16e 	lui	t1,0xc16e
80001f60:	35297fd2 	ori	t1,t1,0x7fd2
80001f64:	3c088003 	lui	t0,0x8003
80001f68:	240a10e4 	li	t2,4324
80001f6c:	240c10e4 	li	t4,4324
80001f70:	ad0910e4 	sw	t1,4324(t0)
80001f74:	851010e4 	lh	s0,4324(t0)
80001f78:	24127fd2 	li	s2,32722
80001f7c:	1612011f 	bne	s0,s2,800023fc <inst_error>
80001f80:	00000000 	nop
80001f84:	3c09f26f 	lui	t1,0xf26f
80001f88:	35290540 	ori	t1,t1,0x540
80001f8c:	3c088003 	lui	t0,0x8003
80001f90:	240a7fb8 	li	t2,32696
80001f94:	240c7fb8 	li	t4,32696
80001f98:	ad097fb8 	sw	t1,32696(t0)
80001f9c:	85107fb8 	lh	s0,32696(t0)
80001fa0:	24120540 	li	s2,1344
80001fa4:	16120115 	bne	s0,s2,800023fc <inst_error>
80001fa8:	00000000 	nop
80001fac:	3c095df5 	lui	t1,0x5df5
80001fb0:	3529b227 	ori	t1,t1,0xb227
80001fb4:	3c088003 	lui	t0,0x8003
80001fb8:	240a2b56 	li	t2,11094
80001fbc:	240c2b54 	li	t4,11092
80001fc0:	ad092b54 	sw	t1,11092(t0)
80001fc4:	85102b56 	lh	s0,11094(t0)
80001fc8:	24125df5 	li	s2,24053
80001fcc:	1612010b 	bne	s0,s2,800023fc <inst_error>
80001fd0:	00000000 	nop
80001fd4:	3c0917cb 	lui	t1,0x17cb
80001fd8:	35292286 	ori	t1,t1,0x2286
80001fdc:	3c088003 	lui	t0,0x8003
80001fe0:	340aa610 	li	t2,0xa610
80001fe4:	340ca610 	li	t4,0xa610
80001fe8:	3c010001 	lui	at,0x1
80001fec:	00280821 	addu	at,at,t0
80001ff0:	ac29a610 	sw	t1,-23024(at)
80001ff4:	3c100001 	lui	s0,0x1
80001ff8:	02088021 	addu	s0,s0,t0
80001ffc:	8610a610 	lh	s0,-23024(s0)
80002000:	24122286 	li	s2,8838
80002004:	161200fd 	bne	s0,s2,800023fc <inst_error>
80002008:	00000000 	nop
8000200c:	3c09cc5b 	lui	t1,0xcc5b
80002010:	35292bee 	ori	t1,t1,0x2bee
80002014:	3c088003 	lui	t0,0x8003
80002018:	340aba32 	li	t2,0xba32
8000201c:	340cba30 	li	t4,0xba30
80002020:	3c010001 	lui	at,0x1
80002024:	00280821 	addu	at,at,t0
80002028:	ac29ba30 	sw	t1,-17872(at)
8000202c:	3c100001 	lui	s0,0x1
80002030:	02088021 	addu	s0,s0,t0
80002034:	8610ba32 	lh	s0,-17870(s0)
80002038:	2412cc5b 	li	s2,-13221
8000203c:	161200ef 	bne	s0,s2,800023fc <inst_error>
80002040:	00000000 	nop
80002044:	3c09f148 	lui	t1,0xf148
80002048:	3529bba0 	ori	t1,t1,0xbba0
8000204c:	3c088003 	lui	t0,0x8003
80002050:	340aa0d2 	li	t2,0xa0d2
80002054:	340ca0d0 	li	t4,0xa0d0
80002058:	3c010001 	lui	at,0x1
8000205c:	00280821 	addu	at,at,t0
80002060:	ac29a0d0 	sw	t1,-24368(at)
80002064:	3c100001 	lui	s0,0x1
80002068:	02088021 	addu	s0,s0,t0
8000206c:	8610a0d2 	lh	s0,-24366(s0)
80002070:	2412f148 	li	s2,-3768
80002074:	161200e1 	bne	s0,s2,800023fc <inst_error>
80002078:	00000000 	nop
8000207c:	3c093377 	lui	t1,0x3377
80002080:	352925a6 	ori	t1,t1,0x25a6
80002084:	3c088003 	lui	t0,0x8003
80002088:	240a762e 	li	t2,30254
8000208c:	240c762c 	li	t4,30252
80002090:	ad09762c 	sw	t1,30252(t0)
80002094:	8510762e 	lh	s0,30254(t0)
80002098:	24123377 	li	s2,13175
8000209c:	161200d7 	bne	s0,s2,800023fc <inst_error>
800020a0:	00000000 	nop
800020a4:	3c092982 	lui	t1,0x2982
800020a8:	3529116c 	ori	t1,t1,0x116c
800020ac:	3c088003 	lui	t0,0x8003
800020b0:	340ab980 	li	t2,0xb980
800020b4:	340cb980 	li	t4,0xb980
800020b8:	3c010001 	lui	at,0x1
800020bc:	00280821 	addu	at,at,t0
800020c0:	ac29b980 	sw	t1,-18048(at)
800020c4:	3c100001 	lui	s0,0x1
800020c8:	02088021 	addu	s0,s0,t0
800020cc:	8610b980 	lh	s0,-18048(s0)
800020d0:	2412116c 	li	s2,4460
800020d4:	161200c9 	bne	s0,s2,800023fc <inst_error>
800020d8:	00000000 	nop
800020dc:	3c09f335 	lui	t1,0xf335
800020e0:	3529ae26 	ori	t1,t1,0xae26
800020e4:	3c088003 	lui	t0,0x8003
800020e8:	340ade14 	li	t2,0xde14
800020ec:	340cde14 	li	t4,0xde14
800020f0:	3c010001 	lui	at,0x1
800020f4:	00280821 	addu	at,at,t0
800020f8:	ac29de14 	sw	t1,-8684(at)
800020fc:	3c100001 	lui	s0,0x1
80002100:	02088021 	addu	s0,s0,t0
80002104:	8610de14 	lh	s0,-8684(s0)
80002108:	2412ae26 	li	s2,-20954
8000210c:	161200bb 	bne	s0,s2,800023fc <inst_error>
80002110:	00000000 	nop
80002114:	3c091cea 	lui	t1,0x1cea
80002118:	35293011 	ori	t1,t1,0x3011
8000211c:	3c088003 	lui	t0,0x8003
80002120:	240a4610 	li	t2,17936
80002124:	240c4610 	li	t4,17936
80002128:	ad094610 	sw	t1,17936(t0)
8000212c:	85104610 	lh	s0,17936(t0)
80002130:	24123011 	li	s2,12305
80002134:	161200b1 	bne	s0,s2,800023fc <inst_error>
80002138:	00000000 	nop
8000213c:	3c095288 	lui	t1,0x5288
80002140:	3529a4be 	ori	t1,t1,0xa4be
80002144:	3c088003 	lui	t0,0x8003
80002148:	240a20e0 	li	t2,8416
8000214c:	240c20e0 	li	t4,8416
80002150:	ad0920e0 	sw	t1,8416(t0)
80002154:	851020e0 	lh	s0,8416(t0)
80002158:	2412a4be 	li	s2,-23362
8000215c:	161200a7 	bne	s0,s2,800023fc <inst_error>
80002160:	00000000 	nop
80002164:	3c09aba5 	lui	t1,0xaba5
80002168:	35298c80 	ori	t1,t1,0x8c80
8000216c:	3c088003 	lui	t0,0x8003
80002170:	340acecc 	li	t2,0xcecc
80002174:	340ccecc 	li	t4,0xcecc
80002178:	3c010001 	lui	at,0x1
8000217c:	00280821 	addu	at,at,t0
80002180:	ac29cecc 	sw	t1,-12596(at)
80002184:	3c100001 	lui	s0,0x1
80002188:	02088021 	addu	s0,s0,t0
8000218c:	8610cecc 	lh	s0,-12596(s0)
80002190:	24128c80 	li	s2,-29568
80002194:	16120099 	bne	s0,s2,800023fc <inst_error>
80002198:	00000000 	nop
8000219c:	3c098780 	lui	t1,0x8780
800021a0:	352918c0 	ori	t1,t1,0x18c0
800021a4:	3c088003 	lui	t0,0x8003
800021a8:	240a1a08 	li	t2,6664
800021ac:	240c1a08 	li	t4,6664
800021b0:	ad091a08 	sw	t1,6664(t0)
800021b4:	85101a08 	lh	s0,6664(t0)
800021b8:	241218c0 	li	s2,6336
800021bc:	1612008f 	bne	s0,s2,800023fc <inst_error>
800021c0:	00000000 	nop
800021c4:	3c09dcfe 	lui	t1,0xdcfe
800021c8:	35297908 	ori	t1,t1,0x7908
800021cc:	3c088003 	lui	t0,0x8003
800021d0:	240a0002 	li	t2,2
800021d4:	240c0000 	li	t4,0
800021d8:	ad090000 	sw	t1,0(t0)
800021dc:	85100002 	lh	s0,2(t0)
800021e0:	2412dcfe 	li	s2,-8962
800021e4:	16120085 	bne	s0,s2,800023fc <inst_error>
800021e8:	00000000 	nop
800021ec:	3c09ca7e 	lui	t1,0xca7e
800021f0:	35292534 	ori	t1,t1,0x2534
800021f4:	3c088003 	lui	t0,0x8003
800021f8:	240a0000 	li	t2,0
800021fc:	240c0000 	li	t4,0
80002200:	ad090000 	sw	t1,0(t0)
80002204:	85100000 	lh	s0,0(t0)
80002208:	24122534 	li	s2,9524
8000220c:	1612007b 	bne	s0,s2,800023fc <inst_error>
80002210:	00000000 	nop
80002214:	3c093a5f 	lui	t1,0x3a5f
80002218:	35295000 	ori	t1,t1,0x5000
8000221c:	3c088003 	lui	t0,0x8003
80002220:	240a0000 	li	t2,0
80002224:	240c0000 	li	t4,0
80002228:	ad090000 	sw	t1,0(t0)
8000222c:	85100000 	lh	s0,0(t0)
80002230:	24125000 	li	s2,20480
80002234:	16120071 	bne	s0,s2,800023fc <inst_error>
80002238:	00000000 	nop
8000223c:	3c09c087 	lui	t1,0xc087
80002240:	3529931c 	ori	t1,t1,0x931c
80002244:	3c088003 	lui	t0,0x8003
80002248:	240a0000 	li	t2,0
8000224c:	240c0000 	li	t4,0
80002250:	ad090000 	sw	t1,0(t0)
80002254:	85100000 	lh	s0,0(t0)
80002258:	2412931c 	li	s2,-27876
8000225c:	16120067 	bne	s0,s2,800023fc <inst_error>
80002260:	00000000 	nop
80002264:	3c090352 	lui	t1,0x352
80002268:	3529c2b4 	ori	t1,t1,0xc2b4
8000226c:	3c088003 	lui	t0,0x8003
80002270:	240a0002 	li	t2,2
80002274:	240c0000 	li	t4,0
80002278:	ad090000 	sw	t1,0(t0)
8000227c:	85100002 	lh	s0,2(t0)
80002280:	24120352 	li	s2,850
80002284:	1612005d 	bne	s0,s2,800023fc <inst_error>
80002288:	00000000 	nop
8000228c:	3c096742 	lui	t1,0x6742
80002290:	352936b0 	ori	t1,t1,0x36b0
80002294:	3c088003 	lui	t0,0x8003
80002298:	240a0000 	li	t2,0
8000229c:	240c0000 	li	t4,0
800022a0:	ad090000 	sw	t1,0(t0)
800022a4:	85100000 	lh	s0,0(t0)
800022a8:	241236b0 	li	s2,14000
800022ac:	16120053 	bne	s0,s2,800023fc <inst_error>
800022b0:	00000000 	nop
800022b4:	3c09b800 	lui	t1,0xb800
800022b8:	35298adc 	ori	t1,t1,0x8adc
800022bc:	3c088003 	lui	t0,0x8003
800022c0:	240a0002 	li	t2,2
800022c4:	240c0000 	li	t4,0
800022c8:	ad090000 	sw	t1,0(t0)
800022cc:	85100002 	lh	s0,2(t0)
800022d0:	2412b800 	li	s2,-18432
800022d4:	16120049 	bne	s0,s2,800023fc <inst_error>
800022d8:	00000000 	nop
800022dc:	3c099368 	lui	t1,0x9368
800022e0:	3529c576 	ori	t1,t1,0xc576
800022e4:	3c088003 	lui	t0,0x8003
800022e8:	240a0000 	li	t2,0
800022ec:	240c0000 	li	t4,0
800022f0:	ad090000 	sw	t1,0(t0)
800022f4:	85100000 	lh	s0,0(t0)
800022f8:	2412c576 	li	s2,-14986
800022fc:	1612003f 	bne	s0,s2,800023fc <inst_error>
80002300:	00000000 	nop
80002304:	3c09fba1 	lui	t1,0xfba1
80002308:	3529ce40 	ori	t1,t1,0xce40
8000230c:	3c088003 	lui	t0,0x8003
80002310:	240a0000 	li	t2,0
80002314:	240c0000 	li	t4,0
80002318:	ad090000 	sw	t1,0(t0)
8000231c:	85100000 	lh	s0,0(t0)
80002320:	2412ce40 	li	s2,-12736
80002324:	16120035 	bne	s0,s2,800023fc <inst_error>
80002328:	00000000 	nop
8000232c:	3c09585c 	lui	t1,0x585c
80002330:	35295e30 	ori	t1,t1,0x5e30
80002334:	3c088003 	lui	t0,0x8003
80002338:	240a0000 	li	t2,0
8000233c:	240c0000 	li	t4,0
80002340:	ad090000 	sw	t1,0(t0)
80002344:	85100000 	lh	s0,0(t0)
80002348:	24125e30 	li	s2,24112
8000234c:	1612002b 	bne	s0,s2,800023fc <inst_error>
80002350:	00000000 	nop
80002354:	3c099915 	lui	t1,0x9915
80002358:	3529f89c 	ori	t1,t1,0xf89c
8000235c:	3c088003 	lui	t0,0x8003
80002360:	240a0000 	li	t2,0
80002364:	240c0000 	li	t4,0
80002368:	ad090000 	sw	t1,0(t0)
8000236c:	85100000 	lh	s0,0(t0)
80002370:	2412f89c 	li	s2,-1892
80002374:	16120021 	bne	s0,s2,800023fc <inst_error>
80002378:	00000000 	nop
8000237c:	3c098aef 	lui	t1,0x8aef
80002380:	3529a220 	ori	t1,t1,0xa220
80002384:	3c088003 	lui	t0,0x8003
80002388:	240a0002 	li	t2,2
8000238c:	240c0000 	li	t4,0
80002390:	ad090000 	sw	t1,0(t0)
80002394:	85100002 	lh	s0,2(t0)
80002398:	24128aef 	li	s2,-29969
8000239c:	16120017 	bne	s0,s2,800023fc <inst_error>
800023a0:	00000000 	nop
800023a4:	3c0942cc 	lui	t1,0x42cc
800023a8:	3529ca62 	ori	t1,t1,0xca62
800023ac:	3c088003 	lui	t0,0x8003
800023b0:	240a0000 	li	t2,0
800023b4:	240c0000 	li	t4,0
800023b8:	ad090000 	sw	t1,0(t0)
800023bc:	85100000 	lh	s0,0(t0)
800023c0:	2412ca62 	li	s2,-13726
800023c4:	1612000d 	bne	s0,s2,800023fc <inst_error>
800023c8:	00000000 	nop
800023cc:	24090000 	li	t1,0
800023d0:	3c088003 	lui	t0,0x8003
800023d4:	240a0000 	li	t2,0
800023d8:	240c0000 	li	t4,0
800023dc:	ad090000 	sw	t1,0(t0)
800023e0:	85100000 	lh	s0,0(t0)
800023e4:	24120000 	li	s2,0
800023e8:	16120004 	bne	s0,s2,800023fc <inst_error>
800023ec:	00000000 	nop
800023f0:	14400002 	bnez	v0,800023fc <inst_error>
800023f4:	00000000 	nop
800023f8:	26730001 	addiu	s3,s3,1

800023fc <inst_error>:
800023fc:	00934025 	or	t0,a0,s3
80002400:	ae280000 	sw	t0,0(s1)
80002404:	03e00008 	jr	ra
80002408:	00000000 	nop
8000240c:	00000000 	nop

80002410 <n30_bne_test>:
80002410:	3c041e00 	lui	a0,0x1e00
80002414:	24020000 	li	v0,0
80002418:	3c0c235f 	lui	t4,0x235f
8000241c:	358cde00 	ori	t4,t4,0xde00
80002420:	3c0ddd59 	lui	t5,0xdd59
80002424:	35ad7dde 	ori	t5,t5,0x7dde
80002428:	24100000 	li	s0,0
8000242c:	24120000 	li	s2,0
80002430:	10000015 	b	80002488 <n30_bne_test+0x78>
80002434:	00000000 	nop
80002438:	3c10235f 	lui	s0,0x235f
8000243c:	3610de00 	ori	s0,s0,0xde00
80002440:	15280021 	bne	t1,t0,800024c8 <n30_bne_test+0xb8>
80002444:	00000000 	nop
80002448:	10000021 	b	800024d0 <n30_bne_test+0xc0>
8000244c:	00000000 	nop
80002450:	00000021 	move	zero,zero
80002454:	00000021 	move	zero,zero
80002458:	00000021 	move	zero,zero
8000245c:	00000021 	move	zero,zero
80002460:	00000021 	move	zero,zero
80002464:	00000021 	move	zero,zero
80002468:	00000021 	move	zero,zero
8000246c:	00000021 	move	zero,zero
80002470:	00000021 	move	zero,zero
80002474:	00000021 	move	zero,zero
80002478:	00000021 	move	zero,zero
8000247c:	00000021 	move	zero,zero
80002480:	00000021 	move	zero,zero
80002484:	00000021 	move	zero,zero
80002488:	3c08bcaa 	lui	t0,0xbcaa
8000248c:	3508bd27 	ori	t0,t0,0xbd27
80002490:	3c0982a7 	lui	t1,0x82a7
80002494:	35297a9d 	ori	t1,t1,0x7a9d
80002498:	1509ffe7 	bne	t0,t1,80002438 <n30_bne_test+0x28>
8000249c:	00000000 	nop
800024a0:	1000000b 	b	800024d0 <n30_bne_test+0xc0>
800024a4:	00000000 	nop
800024a8:	00000021 	move	zero,zero
800024ac:	00000021 	move	zero,zero
800024b0:	00000021 	move	zero,zero
800024b4:	00000021 	move	zero,zero
800024b8:	00000021 	move	zero,zero
800024bc:	00000021 	move	zero,zero
800024c0:	00000021 	move	zero,zero
800024c4:	00000021 	move	zero,zero
800024c8:	3c12dd59 	lui	s2,0xdd59
800024cc:	36527dde 	ori	s2,s2,0x7dde
800024d0:	00000000 	nop
800024d4:	3c14235f 	lui	s4,0x235f
800024d8:	3694de00 	ori	s4,s4,0xde00
800024dc:	16140008 	bne	s0,s4,80002500 <inst_error>
800024e0:	00000000 	nop
800024e4:	3c15dd59 	lui	s5,0xdd59
800024e8:	36b57dde 	ori	s5,s5,0x7dde
800024ec:	16550004 	bne	s2,s5,80002500 <inst_error>
800024f0:	00000000 	nop
800024f4:	14400002 	bnez	v0,80002500 <inst_error>
800024f8:	00000000 	nop
800024fc:	26730001 	addiu	s3,s3,1

80002500 <inst_error>:
80002500:	00934025 	or	t0,a0,s3
80002504:	ae280000 	sw	t0,0(s1)
80002508:	03e00008 	jr	ra
8000250c:	00000000 	nop

80002510 <n6_subu_test>:
80002510:	3c040600 	lui	a0,0x600
80002514:	24020000 	li	v0,0
80002518:	3c08d6fc 	lui	t0,0xd6fc
8000251c:	35080584 	ori	t0,t0,0x584
80002520:	3c095f97 	lui	t1,0x5f97
80002524:	352965a8 	ori	t1,t1,0x65a8
80002528:	01098023 	subu	s0,t0,t1
8000252c:	3c127764 	lui	s2,0x7764
80002530:	36529fdc 	ori	s2,s2,0x9fdc
80002534:	16120004 	bne	s0,s2,80002548 <inst_error>
80002538:	00000000 	nop
8000253c:	14400002 	bnez	v0,80002548 <inst_error>
80002540:	00000000 	nop
80002544:	26730001 	addiu	s3,s3,1

80002548 <inst_error>:
80002548:	00934025 	or	t0,a0,s3
8000254c:	ae280000 	sw	t0,0(s1)
80002550:	03e00008 	jr	ra
80002554:	00000000 	nop

80002558 <n45_break_test>:
80002558:	3c042d00 	lui	a0,0x2d00
8000255c:	24020002 	li	v0,2

80002560 <break_pc>:
80002560:	0000000d 3c10ff00 14500002 00000000     ....<....P......
80002570:	26730001                                &s..

80002574 <inst_error>:
80002574:	00934025 	or	t0,a0,s3
80002578:	ae280000 	sw	t0,0(s1)
8000257c:	03e00008 	jr	ra
80002580:	00000000 	nop
80002584:	00000000 	nop

80002588 <n52_sb_test>:
80002588:	3c043400 	lui	a0,0x3400
8000258c:	24020000 	li	v0,0
80002590:	3c097955 	lui	t1,0x7955
80002594:	3529c40a 	ori	t1,t1,0xc40a
80002598:	3c088002 	lui	t0,0x8002
8000259c:	350816ec 	ori	t0,t0,0x16ec
800025a0:	240a61ec 	li	t2,25068
800025a4:	240c61ec 	li	t4,25068
800025a8:	3c0db4f0 	lui	t5,0xb4f0
800025ac:	35ad0930 	ori	t5,t5,0x930
800025b0:	ad0d61ec 	sw	t5,25068(t0)
800025b4:	a10961ec 	sb	t1,25068(t0)
800025b8:	8d1061ec 	lw	s0,25068(t0)
800025bc:	3c12b4f0 	lui	s2,0xb4f0
800025c0:	3652090a 	ori	s2,s2,0x90a
800025c4:	16120004 	bne	s0,s2,800025d8 <inst_error>
800025c8:	00000000 	nop
800025cc:	14400002 	bnez	v0,800025d8 <inst_error>
800025d0:	00000000 	nop
800025d4:	26730001 	addiu	s3,s3,1

800025d8 <inst_error>:
800025d8:	00934025 	or	t0,a0,s3
800025dc:	ae280000 	sw	t0,0(s1)
800025e0:	03e00008 	jr	ra
800025e4:	00000000 	nop

800025e8 <n24_sllv_test>:
800025e8:	3c041800 	lui	a0,0x1800
800025ec:	24020000 	li	v0,0
800025f0:	3c0879db 	lui	t0,0x79db
800025f4:	3508db34 	ori	t0,t0,0xdb34
800025f8:	24090007 	li	t1,7
800025fc:	01288004 	sllv	s0,t0,t1
80002600:	3c12eded 	lui	s2,0xeded
80002604:	36529a00 	ori	s2,s2,0x9a00
80002608:	16120004 	bne	s0,s2,8000261c <inst_error>
8000260c:	00000000 	nop
80002610:	14400002 	bnez	v0,8000261c <inst_error>
80002614:	00000000 	nop
80002618:	26730001 	addiu	s3,s3,1

8000261c <inst_error>:
8000261c:	00934025 	or	t0,a0,s3
80002620:	ae280000 	sw	t0,0(s1)
80002624:	03e00008 	jr	ra
80002628:	00000000 	nop
8000262c:	00000000 	nop

80002630 <n19_or_test>:
80002630:	3c041300 	lui	a0,0x1300
80002634:	24020000 	li	v0,0
80002638:	3c0850e4 	lui	t0,0x50e4
8000263c:	35081484 	ori	t0,t0,0x1484
80002640:	3c09ad35 	lui	t1,0xad35
80002644:	3529ea94 	ori	t1,t1,0xea94
80002648:	01098025 	or	s0,t0,t1
8000264c:	3c12fdf5 	lui	s2,0xfdf5
80002650:	3652fe94 	ori	s2,s2,0xfe94
80002654:	16120004 	bne	s0,s2,80002668 <inst_error>
80002658:	00000000 	nop
8000265c:	14400002 	bnez	v0,80002668 <inst_error>
80002660:	00000000 	nop
80002664:	26730001 	addiu	s3,s3,1

80002668 <inst_error>:
80002668:	00934025 	or	t0,a0,s3
8000266c:	ae280000 	sw	t0,0(s1)
80002670:	03e00008 	jr	ra
80002674:	00000000 	nop

80002678 <n9_sltu_test>:
80002678:	3c040900 	lui	a0,0x900
8000267c:	24020000 	li	v0,0
80002680:	3c08158f 	lui	t0,0x158f
80002684:	35082b29 	ori	t0,t0,0x2b29
80002688:	3c09421c 	lui	t1,0x421c
8000268c:	35290a42 	ori	t1,t1,0xa42
80002690:	0109802b 	sltu	s0,t0,t1
80002694:	24120001 	li	s2,1
80002698:	16120004 	bne	s0,s2,800026ac <inst_error>
8000269c:	00000000 	nop
800026a0:	14400002 	bnez	v0,800026ac <inst_error>
800026a4:	00000000 	nop
800026a8:	26730001 	addiu	s3,s3,1

800026ac <inst_error>:
800026ac:	00934025 	or	t0,a0,s3
800026b0:	ae280000 	sw	t0,0(s1)
800026b4:	03e00008 	jr	ra
800026b8:	00000000 	nop
800026bc:	00000000 	nop

800026c0 <n56_mfc0_test>:
800026c0:	3c043800 	lui	a0,0x3800
800026c4:	24020000 	li	v0,0
800026c8:	3c08bfc0 	lui	t0,0xbfc0
800026cc:	3508ffff 	ori	t0,t0,0xffff
800026d0:	40094000 	mfc0	t1,c0_badvaddr
800026d4:	40096000 	mfc0	t1,c0_status
800026d8:	40896000 	mtc0	t1,c0_status
800026dc:	40096800 	mfc0	t1,c0_cause
800026e0:	40896800 	mtc0	t1,c0_cause
800026e4:	40097000 	mfc0	t1,c0_epc
800026e8:	40887000 	mtc0	t0,c0_epc
800026ec:	40107000 	mfc0	s0,c0_epc
800026f0:	40897000 	mtc0	t1,c0_epc
800026f4:	15100004 	bne	t0,s0,80002708 <inst_error>
800026f8:	00000000 	nop
800026fc:	14400002 	bnez	v0,80002708 <inst_error>
80002700:	00000000 	nop
80002704:	26730001 	addiu	s3,s3,1

80002708 <inst_error>:
80002708:	00934025 	or	t0,a0,s3
8000270c:	ae280000 	sw	t0,0(s1)
80002710:	03e00008 	jr	ra
80002714:	00000000 	nop

80002718 <n38_jal_test>:
80002718:	3c042600 	lui	a0,0x2600
8000271c:	24020000 	li	v0,0
80002720:	001fb021 	addu	s6,zero,ra
80002724:	3c0c8c3e 	lui	t4,0x8c3e
80002728:	358c1efa 	ori	t4,t4,0x1efa
8000272c:	3c0deb2b 	lui	t5,0xeb2b
80002730:	35add57c 	ori	t5,t5,0xd57c
80002734:	24100000 	li	s0,0
80002738:	24120000 	li	s2,0
8000273c:	1000000b 	b	8000276c <n38_jal_test+0x54>
80002740:	00000000 	nop
80002744:	3c108c3e 	lui	s0,0x8c3e
80002748:	36101efa 	ori	s0,s0,0x1efa
8000274c:	0c0009e0 	jal	80002780 <n38_jal_test+0x68>
80002750:	00000000 	nop
80002754:	1000000c 	b	80002788 <n38_jal_test+0x70>
80002758:	00000000 	nop
8000275c:	00000021 	move	zero,zero
80002760:	00000021 	move	zero,zero
80002764:	00000021 	move	zero,zero
80002768:	00000021 	move	zero,zero
8000276c:	0c0009d1 	jal	80002744 <n38_jal_test+0x2c>
80002770:	00000000 	nop
80002774:	10000004 	b	80002788 <n38_jal_test+0x70>
80002778:	00000000 	nop
8000277c:	00000021 	move	zero,zero
80002780:	3c12eb2b 	lui	s2,0xeb2b
80002784:	3652d57c 	ori	s2,s2,0xd57c
80002788:	001fa021 	addu	s4,zero,ra
8000278c:	0016f821 	addu	ra,zero,s6
80002790:	3c158000 	lui	s5,0x8000
80002794:	26b5274c 	addiu	s5,s5,10060
80002798:	3c0d8c3e 	lui	t5,0x8c3e
8000279c:	35ad1efa 	ori	t5,t5,0x1efa
800027a0:	160d000b 	bne	s0,t5,800027d0 <inst_error>
800027a4:	00000000 	nop
800027a8:	3c0ceb2b 	lui	t4,0xeb2b
800027ac:	358cd57c 	ori	t4,t4,0xd57c
800027b0:	164c0007 	bne	s2,t4,800027d0 <inst_error>
800027b4:	00000000 	nop
800027b8:	26b50008 	addiu	s5,s5,8
800027bc:	16950004 	bne	s4,s5,800027d0 <inst_error>
800027c0:	00000000 	nop
800027c4:	14400002 	bnez	v0,800027d0 <inst_error>
800027c8:	00000000 	nop
800027cc:	26730001 	addiu	s3,s3,1

800027d0 <inst_error>:
800027d0:	00934025 	or	t0,a0,s3
800027d4:	ae280000 	sw	t0,0(s1)
800027d8:	03e00008 	jr	ra
800027dc:	00000000 	nop

800027e0 <n43_mthi_test>:
800027e0:	3c042b00 	lui	a0,0x2b00
800027e4:	24020000 	li	v0,0
800027e8:	3c08a0fd 	lui	t0,0xa0fd
800027ec:	350856b0 	ori	t0,t0,0x56b0
800027f0:	01000011 	mthi	t0
800027f4:	00008010 	mfhi	s0
800027f8:	3c12a0fd 	lui	s2,0xa0fd
800027fc:	365256b0 	ori	s2,s2,0x56b0
80002800:	16120004 	bne	s0,s2,80002814 <inst_error>
80002804:	00000000 	nop
80002808:	14400002 	bnez	v0,80002814 <inst_error>
8000280c:	00000000 	nop
80002810:	26730001 	addiu	s3,s3,1

80002814 <inst_error>:
80002814:	00934025 	or	t0,a0,s3
80002818:	ae280000 	sw	t0,0(s1)
8000281c:	03e00008 	jr	ra
80002820:	00000000 	nop
80002824:	00000000 	nop

80002828 <n21_xor_test>:
80002828:	3c041500 	lui	a0,0x1500
8000282c:	24020000 	li	v0,0
80002830:	3c081773 	lui	t0,0x1773
80002834:	3508df80 	ori	t0,t0,0xdf80
80002838:	3c09b5af 	lui	t1,0xb5af
8000283c:	352951d2 	ori	t1,t1,0x51d2
80002840:	01098026 	xor	s0,t0,t1
80002844:	3c12a2dc 	lui	s2,0xa2dc
80002848:	36528e52 	ori	s2,s2,0x8e52
8000284c:	16120004 	bne	s0,s2,80002860 <inst_error>
80002850:	00000000 	nop
80002854:	14400002 	bnez	v0,80002860 <inst_error>
80002858:	00000000 	nop
8000285c:	26730001 	addiu	s3,s3,1

80002860 <inst_error>:
80002860:	00934025 	or	t0,a0,s3
80002864:	ae280000 	sw	t0,0(s1)
80002868:	03e00008 	jr	ra
8000286c:	00000000 	nop

80002870 <n48_lbu_test>:
80002870:	3c043000 	lui	a0,0x3000
80002874:	24020000 	li	v0,0
80002878:	3c0979db 	lui	t1,0x79db
8000287c:	3529f0ff 	ori	t1,t1,0xf0ff
80002880:	3c088002 	lui	t0,0x8002
80002884:	35085498 	ori	t0,t0,0x5498
80002888:	240a1408 	li	t2,5128
8000288c:	240c1408 	li	t4,5128
80002890:	ad091408 	sw	t1,5128(t0)
80002894:	91101408 	lbu	s0,5128(t0)
80002898:	241200ff 	li	s2,255
8000289c:	161206bd 	bne	s0,s2,80004394 <inst_error>
800028a0:	00000000 	nop
800028a4:	3c099b5b 	lui	t1,0x9b5b
800028a8:	3529ab6c 	ori	t1,t1,0xab6c
800028ac:	3c088002 	lui	t0,0x8002
800028b0:	35084430 	ori	t0,t0,0x4430
800028b4:	240a252e 	li	t2,9518
800028b8:	240c252c 	li	t4,9516
800028bc:	ad09252c 	sw	t1,9516(t0)
800028c0:	9110252e 	lbu	s0,9518(t0)
800028c4:	2412005b 	li	s2,91
800028c8:	161206b2 	bne	s0,s2,80004394 <inst_error>
800028cc:	00000000 	nop
800028d0:	3c09d156 	lui	t1,0xd156
800028d4:	3529f470 	ori	t1,t1,0xf470
800028d8:	3c088002 	lui	t0,0x8002
800028dc:	350845d8 	ori	t0,t0,0x45d8
800028e0:	240a760b 	li	t2,30219
800028e4:	240c7608 	li	t4,30216
800028e8:	ad097608 	sw	t1,30216(t0)
800028ec:	9110760b 	lbu	s0,30219(t0)
800028f0:	241200d1 	li	s2,209
800028f4:	161206a7 	bne	s0,s2,80004394 <inst_error>
800028f8:	00000000 	nop
800028fc:	3c094d85 	lui	t1,0x4d85
80002900:	352964c0 	ori	t1,t1,0x64c0
80002904:	3c088002 	lui	t0,0x8002
80002908:	3508abac 	ori	t0,t0,0xabac
8000290c:	240a5180 	li	t2,20864
80002910:	240c5180 	li	t4,20864
80002914:	ad095180 	sw	t1,20864(t0)
80002918:	91105180 	lbu	s0,20864(t0)
8000291c:	241200c0 	li	s2,192
80002920:	1612069c 	bne	s0,s2,80004394 <inst_error>
80002924:	00000000 	nop
80002928:	3c09927c 	lui	t1,0x927c
8000292c:	35299930 	ori	t1,t1,0x9930
80002930:	3c088002 	lui	t0,0x8002
80002934:	3508ae00 	ori	t0,t0,0xae00
80002938:	240a4a28 	li	t2,18984
8000293c:	240c4a28 	li	t4,18984
80002940:	ad094a28 	sw	t1,18984(t0)
80002944:	91104a28 	lbu	s0,18984(t0)
80002948:	24120030 	li	s2,48
8000294c:	16120691 	bne	s0,s2,80004394 <inst_error>
80002950:	00000000 	nop
80002954:	3c099ec5 	lui	t1,0x9ec5
80002958:	3529966a 	ori	t1,t1,0x966a
8000295c:	3c088002 	lui	t0,0x8002
80002960:	350872b8 	ori	t0,t0,0x72b8
80002964:	240a1e9c 	li	t2,7836
80002968:	240c1e9c 	li	t4,7836
8000296c:	ad091e9c 	sw	t1,7836(t0)
80002970:	91101e9c 	lbu	s0,7836(t0)
80002974:	2412006a 	li	s2,106
80002978:	16120686 	bne	s0,s2,80004394 <inst_error>
8000297c:	00000000 	nop
80002980:	3c0913f9 	lui	t1,0x13f9
80002984:	35291e58 	ori	t1,t1,0x1e58
80002988:	3c088002 	lui	t0,0x8002
8000298c:	35081f30 	ori	t0,t0,0x1f30
80002990:	340ab600 	li	t2,0xb600
80002994:	340cb600 	li	t4,0xb600
80002998:	3c010001 	lui	at,0x1
8000299c:	00280821 	addu	at,at,t0
800029a0:	ac29b600 	sw	t1,-18944(at)
800029a4:	3c100001 	lui	s0,0x1
800029a8:	02088021 	addu	s0,s0,t0
800029ac:	9210b600 	lbu	s0,-18944(s0)
800029b0:	24120058 	li	s2,88
800029b4:	16120677 	bne	s0,s2,80004394 <inst_error>
800029b8:	00000000 	nop
800029bc:	3c090249 	lui	t1,0x249
800029c0:	3529eebd 	ori	t1,t1,0xeebd
800029c4:	3c088002 	lui	t0,0x8002
800029c8:	35083d28 	ori	t0,t0,0x3d28
800029cc:	240a7e74 	li	t2,32372
800029d0:	240c7e74 	li	t4,32372
800029d4:	ad097e74 	sw	t1,32372(t0)
800029d8:	91107e74 	lbu	s0,32372(t0)
800029dc:	241200bd 	li	s2,189
800029e0:	1612066c 	bne	s0,s2,80004394 <inst_error>
800029e4:	00000000 	nop
800029e8:	3c094d40 	lui	t1,0x4d40
800029ec:	3529dd0e 	ori	t1,t1,0xdd0e
800029f0:	3c088002 	lui	t0,0x8002
800029f4:	35082c50 	ori	t0,t0,0x2c50
800029f8:	340ac2d2 	li	t2,0xc2d2
800029fc:	340cc2d0 	li	t4,0xc2d0
80002a00:	3c010001 	lui	at,0x1
80002a04:	00280821 	addu	at,at,t0
80002a08:	ac29c2d0 	sw	t1,-15664(at)
80002a0c:	3c100001 	lui	s0,0x1
80002a10:	02088021 	addu	s0,s0,t0
80002a14:	9210c2d2 	lbu	s0,-15662(s0)
80002a18:	24120040 	li	s2,64
80002a1c:	1612065d 	bne	s0,s2,80004394 <inst_error>
80002a20:	00000000 	nop
80002a24:	3c091dd0 	lui	t1,0x1dd0
80002a28:	352943a8 	ori	t1,t1,0x43a8
80002a2c:	3c088002 	lui	t0,0x8002
80002a30:	35086a7c 	ori	t0,t0,0x6a7c
80002a34:	240a30f8 	li	t2,12536
80002a38:	240c30f8 	li	t4,12536
80002a3c:	ad0930f8 	sw	t1,12536(t0)
80002a40:	911030f8 	lbu	s0,12536(t0)
80002a44:	241200a8 	li	s2,168
80002a48:	16120652 	bne	s0,s2,80004394 <inst_error>
80002a4c:	00000000 	nop
80002a50:	3c09ed11 	lui	t1,0xed11
80002a54:	35291118 	ori	t1,t1,0x1118
80002a58:	3c088002 	lui	t0,0x8002
80002a5c:	350842b4 	ori	t0,t0,0x42b4
80002a60:	240a2b60 	li	t2,11104
80002a64:	240c2b60 	li	t4,11104
80002a68:	ad092b60 	sw	t1,11104(t0)
80002a6c:	91102b60 	lbu	s0,11104(t0)
80002a70:	24120018 	li	s2,24
80002a74:	16120647 	bne	s0,s2,80004394 <inst_error>
80002a78:	00000000 	nop
80002a7c:	3c096937 	lui	t1,0x6937
80002a80:	3529c000 	ori	t1,t1,0xc000
80002a84:	3c088002 	lui	t0,0x8002
80002a88:	3508e7f0 	ori	t0,t0,0xe7f0
80002a8c:	240a0749 	li	t2,1865
80002a90:	240c0748 	li	t4,1864
80002a94:	ad090748 	sw	t1,1864(t0)
80002a98:	91100749 	lbu	s0,1865(t0)
80002a9c:	241200c0 	li	s2,192
80002aa0:	1612063c 	bne	s0,s2,80004394 <inst_error>
80002aa4:	00000000 	nop
80002aa8:	3c09e4f7 	lui	t1,0xe4f7
80002aac:	35296a00 	ori	t1,t1,0x6a00
80002ab0:	3c088002 	lui	t0,0x8002
80002ab4:	3508a130 	ori	t0,t0,0xa130
80002ab8:	240a0768 	li	t2,1896
80002abc:	240c0768 	li	t4,1896
80002ac0:	ad090768 	sw	t1,1896(t0)
80002ac4:	91100768 	lbu	s0,1896(t0)
80002ac8:	24120000 	li	s2,0
80002acc:	16120631 	bne	s0,s2,80004394 <inst_error>
80002ad0:	00000000 	nop
80002ad4:	3c09ee33 	lui	t1,0xee33
80002ad8:	3529dcd0 	ori	t1,t1,0xdcd0
80002adc:	3c088002 	lui	t0,0x8002
80002ae0:	3508bc2c 	ori	t0,t0,0xbc2c
80002ae4:	240a1868 	li	t2,6248
80002ae8:	240c1868 	li	t4,6248
80002aec:	ad091868 	sw	t1,6248(t0)
80002af0:	91101868 	lbu	s0,6248(t0)
80002af4:	241200d0 	li	s2,208
80002af8:	16120626 	bne	s0,s2,80004394 <inst_error>
80002afc:	00000000 	nop
80002b00:	3c09a6a6 	lui	t1,0xa6a6
80002b04:	35297232 	ori	t1,t1,0x7232
80002b08:	3c088002 	lui	t0,0x8002
80002b0c:	35088b40 	ori	t0,t0,0x8b40
80002b10:	240a2f07 	li	t2,12039
80002b14:	240c2f04 	li	t4,12036
80002b18:	ad092f04 	sw	t1,12036(t0)
80002b1c:	91102f07 	lbu	s0,12039(t0)
80002b20:	241200a6 	li	s2,166
80002b24:	1612061b 	bne	s0,s2,80004394 <inst_error>
80002b28:	00000000 	nop
80002b2c:	3c092c62 	lui	t1,0x2c62
80002b30:	3529e6d4 	ori	t1,t1,0xe6d4
80002b34:	3c088002 	lui	t0,0x8002
80002b38:	35083cd4 	ori	t0,t0,0x3cd4
80002b3c:	240a0270 	li	t2,624
80002b40:	240c0270 	li	t4,624
80002b44:	ad090270 	sw	t1,624(t0)
80002b48:	91100270 	lbu	s0,624(t0)
80002b4c:	241200d4 	li	s2,212
80002b50:	16120610 	bne	s0,s2,80004394 <inst_error>
80002b54:	00000000 	nop
80002b58:	3c09dbe7 	lui	t1,0xdbe7
80002b5c:	35295a30 	ori	t1,t1,0x5a30
80002b60:	3c088002 	lui	t0,0x8002
80002b64:	35082854 	ori	t0,t0,0x2854
80002b68:	240a0666 	li	t2,1638
80002b6c:	240c0664 	li	t4,1636
80002b70:	ad090664 	sw	t1,1636(t0)
80002b74:	91100666 	lbu	s0,1638(t0)
80002b78:	241200e7 	li	s2,231
80002b7c:	16120605 	bne	s0,s2,80004394 <inst_error>
80002b80:	00000000 	nop
80002b84:	3c09d220 	lui	t1,0xd220
80002b88:	35291348 	ori	t1,t1,0x1348
80002b8c:	3c088002 	lui	t0,0x8002
80002b90:	35088b40 	ori	t0,t0,0x8b40
80002b94:	240a2bc1 	li	t2,11201
80002b98:	240c2bc0 	li	t4,11200
80002b9c:	ad092bc0 	sw	t1,11200(t0)
80002ba0:	91102bc1 	lbu	s0,11201(t0)
80002ba4:	24120013 	li	s2,19
80002ba8:	161205fa 	bne	s0,s2,80004394 <inst_error>
80002bac:	00000000 	nop
80002bb0:	3c09bc50 	lui	t1,0xbc50
80002bb4:	35299f3c 	ori	t1,t1,0x9f3c
80002bb8:	3c088002 	lui	t0,0x8002
80002bbc:	35080910 	ori	t0,t0,0x910
80002bc0:	340a81c3 	li	t2,0x81c3
80002bc4:	340c81c0 	li	t4,0x81c0
80002bc8:	3c010001 	lui	at,0x1
80002bcc:	00280821 	addu	at,at,t0
80002bd0:	ac2981c0 	sw	t1,-32320(at)
80002bd4:	3c100001 	lui	s0,0x1
80002bd8:	02088021 	addu	s0,s0,t0
80002bdc:	921081c3 	lbu	s0,-32317(s0)
80002be0:	241200bc 	li	s2,188
80002be4:	161205eb 	bne	s0,s2,80004394 <inst_error>
80002be8:	00000000 	nop
80002bec:	3c09d03b 	lui	t1,0xd03b
80002bf0:	3529b99a 	ori	t1,t1,0xb99a
80002bf4:	3c088002 	lui	t0,0x8002
80002bf8:	35082a84 	ori	t0,t0,0x2a84
80002bfc:	240a3780 	li	t2,14208
80002c00:	240c3780 	li	t4,14208
80002c04:	ad093780 	sw	t1,14208(t0)
80002c08:	91103780 	lbu	s0,14208(t0)
80002c0c:	2412009a 	li	s2,154
80002c10:	161205e0 	bne	s0,s2,80004394 <inst_error>
80002c14:	00000000 	nop
80002c18:	3c09c1da 	lui	t1,0xc1da
80002c1c:	35293a60 	ori	t1,t1,0x3a60
80002c20:	3c088002 	lui	t0,0x8002
80002c24:	350891c0 	ori	t0,t0,0x91c0
80002c28:	240a54d0 	li	t2,21712
80002c2c:	240c54d0 	li	t4,21712
80002c30:	ad0954d0 	sw	t1,21712(t0)
80002c34:	911054d0 	lbu	s0,21712(t0)
80002c38:	24120060 	li	s2,96
80002c3c:	161205d5 	bne	s0,s2,80004394 <inst_error>
80002c40:	00000000 	nop
80002c44:	3c092c56 	lui	t1,0x2c56
80002c48:	3529dcf0 	ori	t1,t1,0xdcf0
80002c4c:	3c088002 	lui	t0,0x8002
80002c50:	35086094 	ori	t0,t0,0x6094
80002c54:	240a4c86 	li	t2,19590
80002c58:	240c4c84 	li	t4,19588
80002c5c:	ad094c84 	sw	t1,19588(t0)
80002c60:	91104c86 	lbu	s0,19590(t0)
80002c64:	24120056 	li	s2,86
80002c68:	161205ca 	bne	s0,s2,80004394 <inst_error>
80002c6c:	00000000 	nop
80002c70:	3c09f4a5 	lui	t1,0xf4a5
80002c74:	35293d22 	ori	t1,t1,0x3d22
80002c78:	3c088002 	lui	t0,0x8002
80002c7c:	35080384 	ori	t0,t0,0x384
80002c80:	240a5326 	li	t2,21286
80002c84:	240c5324 	li	t4,21284
80002c88:	ad095324 	sw	t1,21284(t0)
80002c8c:	91105326 	lbu	s0,21286(t0)
80002c90:	241200a5 	li	s2,165
80002c94:	161205bf 	bne	s0,s2,80004394 <inst_error>
80002c98:	00000000 	nop
80002c9c:	3c0944b6 	lui	t1,0x44b6
80002ca0:	35296444 	ori	t1,t1,0x6444
80002ca4:	3c088002 	lui	t0,0x8002
80002ca8:	35089c48 	ori	t0,t0,0x9c48
80002cac:	240a3580 	li	t2,13696
80002cb0:	240c3580 	li	t4,13696
80002cb4:	ad093580 	sw	t1,13696(t0)
80002cb8:	91103580 	lbu	s0,13696(t0)
80002cbc:	24120044 	li	s2,68
80002cc0:	161205b4 	bne	s0,s2,80004394 <inst_error>
80002cc4:	00000000 	nop
80002cc8:	3c092982 	lui	t1,0x2982
80002ccc:	3529f7ac 	ori	t1,t1,0xf7ac
80002cd0:	3c088002 	lui	t0,0x8002
80002cd4:	35080a18 	ori	t0,t0,0xa18
80002cd8:	240a1208 	li	t2,4616
80002cdc:	240c1208 	li	t4,4616
80002ce0:	ad091208 	sw	t1,4616(t0)
80002ce4:	91101208 	lbu	s0,4616(t0)
80002ce8:	241200ac 	li	s2,172
80002cec:	161205a9 	bne	s0,s2,80004394 <inst_error>
80002cf0:	00000000 	nop
80002cf4:	3c099089 	lui	t1,0x9089
80002cf8:	35295498 	ori	t1,t1,0x5498
80002cfc:	3c088002 	lui	t0,0x8002
80002d00:	35086210 	ori	t0,t0,0x6210
80002d04:	240a759c 	li	t2,30108
80002d08:	240c759c 	li	t4,30108
80002d0c:	ad09759c 	sw	t1,30108(t0)
80002d10:	9110759c 	lbu	s0,30108(t0)
80002d14:	24120098 	li	s2,152
80002d18:	1612059e 	bne	s0,s2,80004394 <inst_error>
80002d1c:	00000000 	nop
80002d20:	3c0971d0 	lui	t1,0x71d0
80002d24:	35294400 	ori	t1,t1,0x4400
80002d28:	3c088002 	lui	t0,0x8002
80002d2c:	35081d08 	ori	t0,t0,0x1d08
80002d30:	240a6faf 	li	t2,28591
80002d34:	240c6fac 	li	t4,28588
80002d38:	ad096fac 	sw	t1,28588(t0)
80002d3c:	91106faf 	lbu	s0,28591(t0)
80002d40:	24120071 	li	s2,113
80002d44:	16120593 	bne	s0,s2,80004394 <inst_error>
80002d48:	00000000 	nop
80002d4c:	3c09244f 	lui	t1,0x244f
80002d50:	35292870 	ori	t1,t1,0x2870
80002d54:	3c088002 	lui	t0,0x8002
80002d58:	35081f50 	ori	t0,t0,0x1f50
80002d5c:	340aa4c9 	li	t2,0xa4c9
80002d60:	340ca4c8 	li	t4,0xa4c8
80002d64:	3c010001 	lui	at,0x1
80002d68:	00280821 	addu	at,at,t0
80002d6c:	ac29a4c8 	sw	t1,-23352(at)
80002d70:	3c100001 	lui	s0,0x1
80002d74:	02088021 	addu	s0,s0,t0
80002d78:	9210a4c9 	lbu	s0,-23351(s0)
80002d7c:	24120028 	li	s2,40
80002d80:	16120584 	bne	s0,s2,80004394 <inst_error>
80002d84:	00000000 	nop
80002d88:	3c0960bd 	lui	t1,0x60bd
80002d8c:	3529b8c0 	ori	t1,t1,0xb8c0
80002d90:	3c088002 	lui	t0,0x8002
80002d94:	350860e0 	ori	t0,t0,0x60e0
80002d98:	340a9944 	li	t2,0x9944
80002d9c:	340c9944 	li	t4,0x9944
80002da0:	3c010001 	lui	at,0x1
80002da4:	00280821 	addu	at,at,t0
80002da8:	ac299944 	sw	t1,-26300(at)
80002dac:	3c100001 	lui	s0,0x1
80002db0:	02088021 	addu	s0,s0,t0
80002db4:	92109944 	lbu	s0,-26300(s0)
80002db8:	241200c0 	li	s2,192
80002dbc:	16120575 	bne	s0,s2,80004394 <inst_error>
80002dc0:	00000000 	nop
80002dc4:	3c09952b 	lui	t1,0x952b
80002dc8:	3529094a 	ori	t1,t1,0x94a
80002dcc:	3c088002 	lui	t0,0x8002
80002dd0:	35084a94 	ori	t0,t0,0x4a94
80002dd4:	240a5700 	li	t2,22272
80002dd8:	240c5700 	li	t4,22272
80002ddc:	ad095700 	sw	t1,22272(t0)
80002de0:	91105700 	lbu	s0,22272(t0)
80002de4:	2412004a 	li	s2,74
80002de8:	1612056a 	bne	s0,s2,80004394 <inst_error>
80002dec:	00000000 	nop
80002df0:	3c09407a 	lui	t1,0x407a
80002df4:	35298b80 	ori	t1,t1,0x8b80
80002df8:	3c088002 	lui	t0,0x8002
80002dfc:	3508bb68 	ori	t0,t0,0xbb68
80002e00:	240a3d78 	li	t2,15736
80002e04:	240c3d78 	li	t4,15736
80002e08:	ad093d78 	sw	t1,15736(t0)
80002e0c:	91103d78 	lbu	s0,15736(t0)
80002e10:	24120080 	li	s2,128
80002e14:	1612055f 	bne	s0,s2,80004394 <inst_error>
80002e18:	00000000 	nop
80002e1c:	3c091ca9 	lui	t1,0x1ca9
80002e20:	35293e6d 	ori	t1,t1,0x3e6d
80002e24:	3c088002 	lui	t0,0x8002
80002e28:	35080c60 	ori	t0,t0,0xc60
80002e2c:	240a7e14 	li	t2,32276
80002e30:	240c7e14 	li	t4,32276
80002e34:	ad097e14 	sw	t1,32276(t0)
80002e38:	91107e14 	lbu	s0,32276(t0)
80002e3c:	2412006d 	li	s2,109
80002e40:	16120554 	bne	s0,s2,80004394 <inst_error>
80002e44:	00000000 	nop
80002e48:	3c09cbb3 	lui	t1,0xcbb3
80002e4c:	35295de0 	ori	t1,t1,0x5de0
80002e50:	3c088002 	lui	t0,0x8002
80002e54:	35082358 	ori	t0,t0,0x2358
80002e58:	240a24e0 	li	t2,9440
80002e5c:	240c24e0 	li	t4,9440
80002e60:	ad0924e0 	sw	t1,9440(t0)
80002e64:	911024e0 	lbu	s0,9440(t0)
80002e68:	241200e0 	li	s2,224
80002e6c:	16120549 	bne	s0,s2,80004394 <inst_error>
80002e70:	00000000 	nop
80002e74:	3c098bc6 	lui	t1,0x8bc6
80002e78:	35290e3a 	ori	t1,t1,0xe3a
80002e7c:	3c088002 	lui	t0,0x8002
80002e80:	35082aa0 	ori	t0,t0,0x2aa0
80002e84:	240a354a 	li	t2,13642
80002e88:	240c3548 	li	t4,13640
80002e8c:	ad093548 	sw	t1,13640(t0)
80002e90:	9110354a 	lbu	s0,13642(t0)
80002e94:	241200c6 	li	s2,198
80002e98:	1612053e 	bne	s0,s2,80004394 <inst_error>
80002e9c:	00000000 	nop
80002ea0:	3c099502 	lui	t1,0x9502
80002ea4:	35290f1e 	ori	t1,t1,0xf1e
80002ea8:	3c088002 	lui	t0,0x8002
80002eac:	35082008 	ori	t0,t0,0x2008
80002eb0:	240a320d 	li	t2,12813
80002eb4:	240c320c 	li	t4,12812
80002eb8:	ad09320c 	sw	t1,12812(t0)
80002ebc:	9110320d 	lbu	s0,12813(t0)
80002ec0:	2412000f 	li	s2,15
80002ec4:	16120533 	bne	s0,s2,80004394 <inst_error>
80002ec8:	00000000 	nop
80002ecc:	3c094c60 	lui	t1,0x4c60
80002ed0:	352982f4 	ori	t1,t1,0x82f4
80002ed4:	3c088002 	lui	t0,0x8002
80002ed8:	350829e8 	ori	t0,t0,0x29e8
80002edc:	240a59ec 	li	t2,23020
80002ee0:	240c59ec 	li	t4,23020
80002ee4:	ad0959ec 	sw	t1,23020(t0)
80002ee8:	911059ec 	lbu	s0,23020(t0)
80002eec:	241200f4 	li	s2,244
80002ef0:	16120528 	bne	s0,s2,80004394 <inst_error>
80002ef4:	00000000 	nop
80002ef8:	3c09e8c2 	lui	t1,0xe8c2
80002efc:	35299c44 	ori	t1,t1,0x9c44
80002f00:	3c088002 	lui	t0,0x8002
80002f04:	350841e4 	ori	t0,t0,0x41e4
80002f08:	240a30ca 	li	t2,12490
80002f0c:	240c30c8 	li	t4,12488
80002f10:	ad0930c8 	sw	t1,12488(t0)
80002f14:	911030ca 	lbu	s0,12490(t0)
80002f18:	241200c2 	li	s2,194
80002f1c:	1612051d 	bne	s0,s2,80004394 <inst_error>
80002f20:	00000000 	nop
80002f24:	3c097dd8 	lui	t1,0x7dd8
80002f28:	35299185 	ori	t1,t1,0x9185
80002f2c:	3c088002 	lui	t0,0x8002
80002f30:	3508c0a8 	ori	t0,t0,0xc0a8
80002f34:	240a3184 	li	t2,12676
80002f38:	240c3184 	li	t4,12676
80002f3c:	ad093184 	sw	t1,12676(t0)
80002f40:	91103184 	lbu	s0,12676(t0)
80002f44:	24120085 	li	s2,133
80002f48:	16120512 	bne	s0,s2,80004394 <inst_error>
80002f4c:	00000000 	nop
80002f50:	3c09f2ef 	lui	t1,0xf2ef
80002f54:	35292428 	ori	t1,t1,0x2428
80002f58:	3c088002 	lui	t0,0x8002
80002f5c:	35084478 	ori	t0,t0,0x4478
80002f60:	340ab5bc 	li	t2,0xb5bc
80002f64:	340cb5bc 	li	t4,0xb5bc
80002f68:	3c010001 	lui	at,0x1
80002f6c:	00280821 	addu	at,at,t0
80002f70:	ac29b5bc 	sw	t1,-19012(at)
80002f74:	3c100001 	lui	s0,0x1
80002f78:	02088021 	addu	s0,s0,t0
80002f7c:	9210b5bc 	lbu	s0,-19012(s0)
80002f80:	24120028 	li	s2,40
80002f84:	16120503 	bne	s0,s2,80004394 <inst_error>
80002f88:	00000000 	nop
80002f8c:	3c092789 	lui	t1,0x2789
80002f90:	3529e735 	ori	t1,t1,0xe735
80002f94:	3c088002 	lui	t0,0x8002
80002f98:	35088088 	ori	t0,t0,0x8088
80002f9c:	240a187c 	li	t2,6268
80002fa0:	240c187c 	li	t4,6268
80002fa4:	ad09187c 	sw	t1,6268(t0)
80002fa8:	9110187c 	lbu	s0,6268(t0)
80002fac:	24120035 	li	s2,53
80002fb0:	161204f8 	bne	s0,s2,80004394 <inst_error>
80002fb4:	00000000 	nop
80002fb8:	3c095761 	lui	t1,0x5761
80002fbc:	35293900 	ori	t1,t1,0x3900
80002fc0:	3c088002 	lui	t0,0x8002
80002fc4:	35086434 	ori	t0,t0,0x6434
80002fc8:	340a80c8 	li	t2,0x80c8
80002fcc:	340c80c8 	li	t4,0x80c8
80002fd0:	3c010001 	lui	at,0x1
80002fd4:	00280821 	addu	at,at,t0
80002fd8:	ac2980c8 	sw	t1,-32568(at)
80002fdc:	3c100001 	lui	s0,0x1
80002fe0:	02088021 	addu	s0,s0,t0
80002fe4:	921080c8 	lbu	s0,-32568(s0)
80002fe8:	24120000 	li	s2,0
80002fec:	161204e9 	bne	s0,s2,80004394 <inst_error>
80002ff0:	00000000 	nop
80002ff4:	3c09f831 	lui	t1,0xf831
80002ff8:	3529d258 	ori	t1,t1,0xd258
80002ffc:	3c088002 	lui	t0,0x8002
80003000:	3508b5f0 	ori	t0,t0,0xb5f0
80003004:	240a12cc 	li	t2,4812
80003008:	240c12cc 	li	t4,4812
8000300c:	ad0912cc 	sw	t1,4812(t0)
80003010:	911012cc 	lbu	s0,4812(t0)
80003014:	24120058 	li	s2,88
80003018:	161204de 	bne	s0,s2,80004394 <inst_error>
8000301c:	00000000 	nop
80003020:	3c099476 	lui	t1,0x9476
80003024:	35298ba0 	ori	t1,t1,0x8ba0
80003028:	3c088002 	lui	t0,0x8002
8000302c:	35089ef8 	ori	t0,t0,0x9ef8
80003030:	240a3d84 	li	t2,15748
80003034:	240c3d84 	li	t4,15748
80003038:	ad093d84 	sw	t1,15748(t0)
8000303c:	91103d84 	lbu	s0,15748(t0)
80003040:	241200a0 	li	s2,160
80003044:	161204d3 	bne	s0,s2,80004394 <inst_error>
80003048:	00000000 	nop
8000304c:	3c096f5a 	lui	t1,0x6f5a
80003050:	3529b393 	ori	t1,t1,0xb393
80003054:	3c088002 	lui	t0,0x8002
80003058:	350823d0 	ori	t0,t0,0x23d0
8000305c:	240a61b8 	li	t2,25016
80003060:	240c61b8 	li	t4,25016
80003064:	ad0961b8 	sw	t1,25016(t0)
80003068:	911061b8 	lbu	s0,25016(t0)
8000306c:	24120093 	li	s2,147
80003070:	161204c8 	bne	s0,s2,80004394 <inst_error>
80003074:	00000000 	nop
80003078:	3c09d734 	lui	t1,0xd734
8000307c:	352983da 	ori	t1,t1,0x83da
80003080:	3c088002 	lui	t0,0x8002
80003084:	35087a70 	ori	t0,t0,0x7a70
80003088:	240a5009 	li	t2,20489
8000308c:	240c5008 	li	t4,20488
80003090:	ad095008 	sw	t1,20488(t0)
80003094:	91105009 	lbu	s0,20489(t0)
80003098:	24120083 	li	s2,131
8000309c:	161204bd 	bne	s0,s2,80004394 <inst_error>
800030a0:	00000000 	nop
800030a4:	3c094ab1 	lui	t1,0x4ab1
800030a8:	3529c5a6 	ori	t1,t1,0xc5a6
800030ac:	3c088002 	lui	t0,0x8002
800030b0:	35086ea8 	ori	t0,t0,0x6ea8
800030b4:	240a61a0 	li	t2,24992
800030b8:	240c61a0 	li	t4,24992
800030bc:	ad0961a0 	sw	t1,24992(t0)
800030c0:	911061a0 	lbu	s0,24992(t0)
800030c4:	241200a6 	li	s2,166
800030c8:	161204b2 	bne	s0,s2,80004394 <inst_error>
800030cc:	00000000 	nop
800030d0:	3c09d4b6 	lui	t1,0xd4b6
800030d4:	3529c948 	ori	t1,t1,0xc948
800030d8:	3c088002 	lui	t0,0x8002
800030dc:	35085864 	ori	t0,t0,0x5864
800030e0:	240a6d0f 	li	t2,27919
800030e4:	240c6d0c 	li	t4,27916
800030e8:	ad096d0c 	sw	t1,27916(t0)
800030ec:	91106d0f 	lbu	s0,27919(t0)
800030f0:	241200d4 	li	s2,212
800030f4:	161204a7 	bne	s0,s2,80004394 <inst_error>
800030f8:	00000000 	nop
800030fc:	3c091b18 	lui	t1,0x1b18
80003100:	35299c1c 	ori	t1,t1,0x9c1c
80003104:	3c088002 	lui	t0,0x8002
80003108:	35082564 	ori	t0,t0,0x2564
8000310c:	240a317e 	li	t2,12670
80003110:	240c317c 	li	t4,12668
80003114:	ad09317c 	sw	t1,12668(t0)
80003118:	9110317e 	lbu	s0,12670(t0)
8000311c:	24120018 	li	s2,24
80003120:	1612049c 	bne	s0,s2,80004394 <inst_error>
80003124:	00000000 	nop
80003128:	3c09861b 	lui	t1,0x861b
8000312c:	35293d98 	ori	t1,t1,0x3d98
80003130:	3c088002 	lui	t0,0x8002
80003134:	35085df8 	ori	t0,t0,0x5df8
80003138:	340a89a0 	li	t2,0x89a0
8000313c:	340c89a0 	li	t4,0x89a0
80003140:	3c010001 	lui	at,0x1
80003144:	00280821 	addu	at,at,t0
80003148:	ac2989a0 	sw	t1,-30304(at)
8000314c:	3c100001 	lui	s0,0x1
80003150:	02088021 	addu	s0,s0,t0
80003154:	921089a0 	lbu	s0,-30304(s0)
80003158:	24120098 	li	s2,152
8000315c:	1612048d 	bne	s0,s2,80004394 <inst_error>
80003160:	00000000 	nop
80003164:	3c091f87 	lui	t1,0x1f87
80003168:	35296f58 	ori	t1,t1,0x6f58
8000316c:	3c088002 	lui	t0,0x8002
80003170:	350810e0 	ori	t0,t0,0x10e0
80003174:	240a46bc 	li	t2,18108
80003178:	240c46bc 	li	t4,18108
8000317c:	ad0946bc 	sw	t1,18108(t0)
80003180:	911046bc 	lbu	s0,18108(t0)
80003184:	24120058 	li	s2,88
80003188:	16120482 	bne	s0,s2,80004394 <inst_error>
8000318c:	00000000 	nop
80003190:	3c093b20 	lui	t1,0x3b20
80003194:	35297858 	ori	t1,t1,0x7858
80003198:	3c088002 	lui	t0,0x8002
8000319c:	350814a4 	ori	t0,t0,0x14a4
800031a0:	240a1cf6 	li	t2,7414
800031a4:	240c1cf4 	li	t4,7412
800031a8:	ad091cf4 	sw	t1,7412(t0)
800031ac:	91101cf6 	lbu	s0,7414(t0)
800031b0:	24120020 	li	s2,32
800031b4:	16120477 	bne	s0,s2,80004394 <inst_error>
800031b8:	00000000 	nop
800031bc:	3c0967c1 	lui	t1,0x67c1
800031c0:	3529dd18 	ori	t1,t1,0xdd18
800031c4:	3c088002 	lui	t0,0x8002
800031c8:	3508d370 	ori	t0,t0,0xd370
800031cc:	240a2326 	li	t2,8998
800031d0:	240c2324 	li	t4,8996
800031d4:	ad092324 	sw	t1,8996(t0)
800031d8:	91102326 	lbu	s0,8998(t0)
800031dc:	241200c1 	li	s2,193
800031e0:	1612046c 	bne	s0,s2,80004394 <inst_error>
800031e4:	00000000 	nop
800031e8:	3c097066 	lui	t1,0x7066
800031ec:	352969a8 	ori	t1,t1,0x69a8
800031f0:	3c088002 	lui	t0,0x8002
800031f4:	350823dc 	ori	t0,t0,0x23dc
800031f8:	240a3fb0 	li	t2,16304
800031fc:	240c3fb0 	li	t4,16304
80003200:	ad093fb0 	sw	t1,16304(t0)
80003204:	91103fb0 	lbu	s0,16304(t0)
80003208:	241200a8 	li	s2,168
8000320c:	16120461 	bne	s0,s2,80004394 <inst_error>
80003210:	00000000 	nop
80003214:	3c090e43 	lui	t1,0xe43
80003218:	352983c0 	ori	t1,t1,0x83c0
8000321c:	3c088003 	lui	t0,0x8003
80003220:	240a44a9 	li	t2,17577
80003224:	240c44a8 	li	t4,17576
80003228:	ad0944a8 	sw	t1,17576(t0)
8000322c:	911044a9 	lbu	s0,17577(t0)
80003230:	24120083 	li	s2,131
80003234:	16120457 	bne	s0,s2,80004394 <inst_error>
80003238:	00000000 	nop
8000323c:	3c09d9c8 	lui	t1,0xd9c8
80003240:	352961cc 	ori	t1,t1,0x61cc
80003244:	3c088003 	lui	t0,0x8003
80003248:	240a5d3e 	li	t2,23870
8000324c:	240c5d3c 	li	t4,23868
80003250:	ad095d3c 	sw	t1,23868(t0)
80003254:	91105d3e 	lbu	s0,23870(t0)
80003258:	241200c8 	li	s2,200
8000325c:	1612044d 	bne	s0,s2,80004394 <inst_error>
80003260:	00000000 	nop
80003264:	3c09fecf 	lui	t1,0xfecf
80003268:	352979cc 	ori	t1,t1,0x79cc
8000326c:	3c088003 	lui	t0,0x8003
80003270:	240a6c20 	li	t2,27680
80003274:	240c6c20 	li	t4,27680
80003278:	ad096c20 	sw	t1,27680(t0)
8000327c:	91106c20 	lbu	s0,27680(t0)
80003280:	241200cc 	li	s2,204
80003284:	16120443 	bne	s0,s2,80004394 <inst_error>
80003288:	00000000 	nop
8000328c:	3c0962ea 	lui	t1,0x62ea
80003290:	3529b940 	ori	t1,t1,0xb940
80003294:	3c088003 	lui	t0,0x8003
80003298:	340acfe1 	li	t2,0xcfe1
8000329c:	340ccfe0 	li	t4,0xcfe0
800032a0:	3c010001 	lui	at,0x1
800032a4:	00280821 	addu	at,at,t0
800032a8:	ac29cfe0 	sw	t1,-12320(at)
800032ac:	3c100001 	lui	s0,0x1
800032b0:	02088021 	addu	s0,s0,t0
800032b4:	9210cfe1 	lbu	s0,-12319(s0)
800032b8:	241200b9 	li	s2,185
800032bc:	16120435 	bne	s0,s2,80004394 <inst_error>
800032c0:	00000000 	nop
800032c4:	3c09c5f7 	lui	t1,0xc5f7
800032c8:	35291c93 	ori	t1,t1,0x1c93
800032cc:	3c088003 	lui	t0,0x8003
800032d0:	240a03ac 	li	t2,940
800032d4:	240c03ac 	li	t4,940
800032d8:	ad0903ac 	sw	t1,940(t0)
800032dc:	911003ac 	lbu	s0,940(t0)
800032e0:	24120093 	li	s2,147
800032e4:	1612042b 	bne	s0,s2,80004394 <inst_error>
800032e8:	00000000 	nop
800032ec:	3c09dc99 	lui	t1,0xdc99
800032f0:	35290bc0 	ori	t1,t1,0xbc0
800032f4:	3c088003 	lui	t0,0x8003
800032f8:	240a4632 	li	t2,17970
800032fc:	240c4630 	li	t4,17968
80003300:	ad094630 	sw	t1,17968(t0)
80003304:	91104632 	lbu	s0,17970(t0)
80003308:	24120099 	li	s2,153
8000330c:	16120421 	bne	s0,s2,80004394 <inst_error>
80003310:	00000000 	nop
80003314:	3c09ffa8 	lui	t1,0xffa8
80003318:	352921b0 	ori	t1,t1,0x21b0
8000331c:	3c088003 	lui	t0,0x8003
80003320:	240a047a 	li	t2,1146
80003324:	240c0478 	li	t4,1144
80003328:	ad090478 	sw	t1,1144(t0)
8000332c:	9110047a 	lbu	s0,1146(t0)
80003330:	241200a8 	li	s2,168
80003334:	16120417 	bne	s0,s2,80004394 <inst_error>
80003338:	00000000 	nop
8000333c:	3c09669c 	lui	t1,0x669c
80003340:	3529b8f8 	ori	t1,t1,0xb8f8
80003344:	3c088003 	lui	t0,0x8003
80003348:	240a5dc8 	li	t2,24008
8000334c:	240c5dc8 	li	t4,24008
80003350:	ad095dc8 	sw	t1,24008(t0)
80003354:	91105dc8 	lbu	s0,24008(t0)
80003358:	241200f8 	li	s2,248
8000335c:	1612040d 	bne	s0,s2,80004394 <inst_error>
80003360:	00000000 	nop
80003364:	3c09d965 	lui	t1,0xd965
80003368:	35290b98 	ori	t1,t1,0xb98
8000336c:	3c088003 	lui	t0,0x8003
80003370:	340ad202 	li	t2,0xd202
80003374:	340cd200 	li	t4,0xd200
80003378:	3c010001 	lui	at,0x1
8000337c:	00280821 	addu	at,at,t0
80003380:	ac29d200 	sw	t1,-11776(at)
80003384:	3c100001 	lui	s0,0x1
80003388:	02088021 	addu	s0,s0,t0
8000338c:	9210d202 	lbu	s0,-11774(s0)
80003390:	24120065 	li	s2,101
80003394:	161203ff 	bne	s0,s2,80004394 <inst_error>
80003398:	00000000 	nop
8000339c:	3c09845c 	lui	t1,0x845c
800033a0:	352979fc 	ori	t1,t1,0x79fc
800033a4:	3c088003 	lui	t0,0x8003
800033a8:	340af504 	li	t2,0xf504
800033ac:	340cf504 	li	t4,0xf504
800033b0:	3c010001 	lui	at,0x1
800033b4:	00280821 	addu	at,at,t0
800033b8:	ac29f504 	sw	t1,-2812(at)
800033bc:	3c100001 	lui	s0,0x1
800033c0:	02088021 	addu	s0,s0,t0
800033c4:	9210f504 	lbu	s0,-2812(s0)
800033c8:	241200fc 	li	s2,252
800033cc:	161203f1 	bne	s0,s2,80004394 <inst_error>
800033d0:	00000000 	nop
800033d4:	3c09a7ed 	lui	t1,0xa7ed
800033d8:	35299420 	ori	t1,t1,0x9420
800033dc:	3c088003 	lui	t0,0x8003
800033e0:	340ae5e8 	li	t2,0xe5e8
800033e4:	340ce5e8 	li	t4,0xe5e8
800033e8:	3c010001 	lui	at,0x1
800033ec:	00280821 	addu	at,at,t0
800033f0:	ac29e5e8 	sw	t1,-6680(at)
800033f4:	3c100001 	lui	s0,0x1
800033f8:	02088021 	addu	s0,s0,t0
800033fc:	9210e5e8 	lbu	s0,-6680(s0)
80003400:	24120020 	li	s2,32
80003404:	161203e3 	bne	s0,s2,80004394 <inst_error>
80003408:	00000000 	nop
8000340c:	3c09a458 	lui	t1,0xa458
80003410:	3529f1f2 	ori	t1,t1,0xf1f2
80003414:	3c088003 	lui	t0,0x8003
80003418:	340a9125 	li	t2,0x9125
8000341c:	340c9124 	li	t4,0x9124
80003420:	3c010001 	lui	at,0x1
80003424:	00280821 	addu	at,at,t0
80003428:	ac299124 	sw	t1,-28380(at)
8000342c:	3c100001 	lui	s0,0x1
80003430:	02088021 	addu	s0,s0,t0
80003434:	92109125 	lbu	s0,-28379(s0)
80003438:	241200f1 	li	s2,241
8000343c:	161203d5 	bne	s0,s2,80004394 <inst_error>
80003440:	00000000 	nop
80003444:	3c09ad33 	lui	t1,0xad33
80003448:	3529ad20 	ori	t1,t1,0xad20
8000344c:	3c088003 	lui	t0,0x8003
80003450:	340adb1a 	li	t2,0xdb1a
80003454:	340cdb18 	li	t4,0xdb18
80003458:	3c010001 	lui	at,0x1
8000345c:	00280821 	addu	at,at,t0
80003460:	ac29db18 	sw	t1,-9448(at)
80003464:	3c100001 	lui	s0,0x1
80003468:	02088021 	addu	s0,s0,t0
8000346c:	9210db1a 	lbu	s0,-9446(s0)
80003470:	24120033 	li	s2,51
80003474:	161203c7 	bne	s0,s2,80004394 <inst_error>
80003478:	00000000 	nop
8000347c:	3c09bd74 	lui	t1,0xbd74
80003480:	35293318 	ori	t1,t1,0x3318
80003484:	3c088003 	lui	t0,0x8003
80003488:	340ac2f8 	li	t2,0xc2f8
8000348c:	340cc2f8 	li	t4,0xc2f8
80003490:	3c010001 	lui	at,0x1
80003494:	00280821 	addu	at,at,t0
80003498:	ac29c2f8 	sw	t1,-15624(at)
8000349c:	3c100001 	lui	s0,0x1
800034a0:	02088021 	addu	s0,s0,t0
800034a4:	9210c2f8 	lbu	s0,-15624(s0)
800034a8:	24120018 	li	s2,24
800034ac:	161203b9 	bne	s0,s2,80004394 <inst_error>
800034b0:	00000000 	nop
800034b4:	3c09ec31 	lui	t1,0xec31
800034b8:	35295702 	ori	t1,t1,0x5702
800034bc:	3c088003 	lui	t0,0x8003
800034c0:	240a0230 	li	t2,560
800034c4:	240c0230 	li	t4,560
800034c8:	ad090230 	sw	t1,560(t0)
800034cc:	91100230 	lbu	s0,560(t0)
800034d0:	24120002 	li	s2,2
800034d4:	161203af 	bne	s0,s2,80004394 <inst_error>
800034d8:	00000000 	nop
800034dc:	3c097b43 	lui	t1,0x7b43
800034e0:	35293429 	ori	t1,t1,0x3429
800034e4:	3c088003 	lui	t0,0x8003
800034e8:	240a0ae0 	li	t2,2784
800034ec:	240c0ae0 	li	t4,2784
800034f0:	ad090ae0 	sw	t1,2784(t0)
800034f4:	91100ae0 	lbu	s0,2784(t0)
800034f8:	24120029 	li	s2,41
800034fc:	161203a5 	bne	s0,s2,80004394 <inst_error>
80003500:	00000000 	nop
80003504:	3c093455 	lui	t1,0x3455
80003508:	352992f0 	ori	t1,t1,0x92f0
8000350c:	3c088003 	lui	t0,0x8003
80003510:	340ad080 	li	t2,0xd080
80003514:	340cd080 	li	t4,0xd080
80003518:	3c010001 	lui	at,0x1
8000351c:	00280821 	addu	at,at,t0
80003520:	ac29d080 	sw	t1,-12160(at)
80003524:	3c100001 	lui	s0,0x1
80003528:	02088021 	addu	s0,s0,t0
8000352c:	9210d080 	lbu	s0,-12160(s0)
80003530:	241200f0 	li	s2,240
80003534:	16120397 	bne	s0,s2,80004394 <inst_error>
80003538:	00000000 	nop
8000353c:	3c0915fe 	lui	t1,0x15fe
80003540:	3529c970 	ori	t1,t1,0xc970
80003544:	3c088003 	lui	t0,0x8003
80003548:	340aa6d0 	li	t2,0xa6d0
8000354c:	340ca6d0 	li	t4,0xa6d0
80003550:	3c010001 	lui	at,0x1
80003554:	00280821 	addu	at,at,t0
80003558:	ac29a6d0 	sw	t1,-22832(at)
8000355c:	3c100001 	lui	s0,0x1
80003560:	02088021 	addu	s0,s0,t0
80003564:	9210a6d0 	lbu	s0,-22832(s0)
80003568:	24120070 	li	s2,112
8000356c:	16120389 	bne	s0,s2,80004394 <inst_error>
80003570:	00000000 	nop
80003574:	3c09483e 	lui	t1,0x483e
80003578:	3529c7ee 	ori	t1,t1,0xc7ee
8000357c:	3c088003 	lui	t0,0x8003
80003580:	340a8570 	li	t2,0x8570
80003584:	340c8570 	li	t4,0x8570
80003588:	3c010001 	lui	at,0x1
8000358c:	00280821 	addu	at,at,t0
80003590:	ac298570 	sw	t1,-31376(at)
80003594:	3c100001 	lui	s0,0x1
80003598:	02088021 	addu	s0,s0,t0
8000359c:	92108570 	lbu	s0,-31376(s0)
800035a0:	241200ee 	li	s2,238
800035a4:	1612037b 	bne	s0,s2,80004394 <inst_error>
800035a8:	00000000 	nop
800035ac:	3c09ca82 	lui	t1,0xca82
800035b0:	3529fc00 	ori	t1,t1,0xfc00
800035b4:	3c088003 	lui	t0,0x8003
800035b8:	240a5cfe 	li	t2,23806
800035bc:	240c5cfc 	li	t4,23804
800035c0:	ad095cfc 	sw	t1,23804(t0)
800035c4:	91105cfe 	lbu	s0,23806(t0)
800035c8:	24120082 	li	s2,130
800035cc:	16120371 	bne	s0,s2,80004394 <inst_error>
800035d0:	00000000 	nop
800035d4:	3c092595 	lui	t1,0x2595
800035d8:	35293f20 	ori	t1,t1,0x3f20
800035dc:	3c088003 	lui	t0,0x8003
800035e0:	340ad0c3 	li	t2,0xd0c3
800035e4:	340cd0c0 	li	t4,0xd0c0
800035e8:	3c010001 	lui	at,0x1
800035ec:	00280821 	addu	at,at,t0
800035f0:	ac29d0c0 	sw	t1,-12096(at)
800035f4:	3c100001 	lui	s0,0x1
800035f8:	02088021 	addu	s0,s0,t0
800035fc:	9210d0c3 	lbu	s0,-12093(s0)
80003600:	24120025 	li	s2,37
80003604:	16120363 	bne	s0,s2,80004394 <inst_error>
80003608:	00000000 	nop
8000360c:	3c09c718 	lui	t1,0xc718
80003610:	35294dde 	ori	t1,t1,0x4dde
80003614:	3c088003 	lui	t0,0x8003
80003618:	240a5558 	li	t2,21848
8000361c:	240c5558 	li	t4,21848
80003620:	ad095558 	sw	t1,21848(t0)
80003624:	91105558 	lbu	s0,21848(t0)
80003628:	241200de 	li	s2,222
8000362c:	16120359 	bne	s0,s2,80004394 <inst_error>
80003630:	00000000 	nop
80003634:	3c09899b 	lui	t1,0x899b
80003638:	3529e100 	ori	t1,t1,0xe100
8000363c:	3c088003 	lui	t0,0x8003
80003640:	340af0c4 	li	t2,0xf0c4
80003644:	340cf0c4 	li	t4,0xf0c4
80003648:	3c010001 	lui	at,0x1
8000364c:	00280821 	addu	at,at,t0
80003650:	ac29f0c4 	sw	t1,-3900(at)
80003654:	3c100001 	lui	s0,0x1
80003658:	02088021 	addu	s0,s0,t0
8000365c:	9210f0c4 	lbu	s0,-3900(s0)
80003660:	24120000 	li	s2,0
80003664:	1612034b 	bne	s0,s2,80004394 <inst_error>
80003668:	00000000 	nop
8000366c:	3c094629 	lui	t1,0x4629
80003670:	3529ad14 	ori	t1,t1,0xad14
80003674:	3c088003 	lui	t0,0x8003
80003678:	340af550 	li	t2,0xf550
8000367c:	340cf550 	li	t4,0xf550
80003680:	3c010001 	lui	at,0x1
80003684:	00280821 	addu	at,at,t0
80003688:	ac29f550 	sw	t1,-2736(at)
8000368c:	3c100001 	lui	s0,0x1
80003690:	02088021 	addu	s0,s0,t0
80003694:	9210f550 	lbu	s0,-2736(s0)
80003698:	24120014 	li	s2,20
8000369c:	1612033d 	bne	s0,s2,80004394 <inst_error>
800036a0:	00000000 	nop
800036a4:	3c09b741 	lui	t1,0xb741
800036a8:	3529c3b2 	ori	t1,t1,0xc3b2
800036ac:	3c088003 	lui	t0,0x8003
800036b0:	340a9370 	li	t2,0x9370
800036b4:	340c9370 	li	t4,0x9370
800036b8:	3c010001 	lui	at,0x1
800036bc:	00280821 	addu	at,at,t0
800036c0:	ac299370 	sw	t1,-27792(at)
800036c4:	3c100001 	lui	s0,0x1
800036c8:	02088021 	addu	s0,s0,t0
800036cc:	92109370 	lbu	s0,-27792(s0)
800036d0:	241200b2 	li	s2,178
800036d4:	1612032f 	bne	s0,s2,80004394 <inst_error>
800036d8:	00000000 	nop
800036dc:	3c093b7a 	lui	t1,0x3b7a
800036e0:	35298198 	ori	t1,t1,0x8198
800036e4:	3c088003 	lui	t0,0x8003
800036e8:	240a2dc5 	li	t2,11717
800036ec:	240c2dc4 	li	t4,11716
800036f0:	ad092dc4 	sw	t1,11716(t0)
800036f4:	91102dc5 	lbu	s0,11717(t0)
800036f8:	24120081 	li	s2,129
800036fc:	16120325 	bne	s0,s2,80004394 <inst_error>
80003700:	00000000 	nop
80003704:	3c09c5e5 	lui	t1,0xc5e5
80003708:	352941f6 	ori	t1,t1,0x41f6
8000370c:	3c088003 	lui	t0,0x8003
80003710:	240a3560 	li	t2,13664
80003714:	240c3560 	li	t4,13664
80003718:	ad093560 	sw	t1,13664(t0)
8000371c:	91103560 	lbu	s0,13664(t0)
80003720:	241200f6 	li	s2,246
80003724:	1612031b 	bne	s0,s2,80004394 <inst_error>
80003728:	00000000 	nop
8000372c:	3c09df5b 	lui	t1,0xdf5b
80003730:	35291a0a 	ori	t1,t1,0x1a0a
80003734:	3c088003 	lui	t0,0x8003
80003738:	340ad8c0 	li	t2,0xd8c0
8000373c:	340cd8c0 	li	t4,0xd8c0
80003740:	3c010001 	lui	at,0x1
80003744:	00280821 	addu	at,at,t0
80003748:	ac29d8c0 	sw	t1,-10048(at)
8000374c:	3c100001 	lui	s0,0x1
80003750:	02088021 	addu	s0,s0,t0
80003754:	9210d8c0 	lbu	s0,-10048(s0)
80003758:	2412000a 	li	s2,10
8000375c:	1612030d 	bne	s0,s2,80004394 <inst_error>
80003760:	00000000 	nop
80003764:	3c099e06 	lui	t1,0x9e06
80003768:	3529fab8 	ori	t1,t1,0xfab8
8000376c:	3c088003 	lui	t0,0x8003
80003770:	240a04ca 	li	t2,1226
80003774:	240c04c8 	li	t4,1224
80003778:	ad0904c8 	sw	t1,1224(t0)
8000377c:	911004ca 	lbu	s0,1226(t0)
80003780:	24120006 	li	s2,6
80003784:	16120303 	bne	s0,s2,80004394 <inst_error>
80003788:	00000000 	nop
8000378c:	3c0970df 	lui	t1,0x70df
80003790:	35295f2c 	ori	t1,t1,0x5f2c
80003794:	3c088003 	lui	t0,0x8003
80003798:	340ab6ba 	li	t2,0xb6ba
8000379c:	340cb6b8 	li	t4,0xb6b8
800037a0:	3c010001 	lui	at,0x1
800037a4:	00280821 	addu	at,at,t0
800037a8:	ac29b6b8 	sw	t1,-18760(at)
800037ac:	3c100001 	lui	s0,0x1
800037b0:	02088021 	addu	s0,s0,t0
800037b4:	9210b6ba 	lbu	s0,-18758(s0)
800037b8:	241200df 	li	s2,223
800037bc:	161202f5 	bne	s0,s2,80004394 <inst_error>
800037c0:	00000000 	nop
800037c4:	3c095717 	lui	t1,0x5717
800037c8:	3529a104 	ori	t1,t1,0xa104
800037cc:	3c088003 	lui	t0,0x8003
800037d0:	340aedc2 	li	t2,0xedc2
800037d4:	340cedc0 	li	t4,0xedc0
800037d8:	3c010001 	lui	at,0x1
800037dc:	00280821 	addu	at,at,t0
800037e0:	ac29edc0 	sw	t1,-4672(at)
800037e4:	3c100001 	lui	s0,0x1
800037e8:	02088021 	addu	s0,s0,t0
800037ec:	9210edc2 	lbu	s0,-4670(s0)
800037f0:	24120017 	li	s2,23
800037f4:	161202e7 	bne	s0,s2,80004394 <inst_error>
800037f8:	00000000 	nop
800037fc:	3c0991f2 	lui	t1,0x91f2
80003800:	3529f789 	ori	t1,t1,0xf789
80003804:	3c088003 	lui	t0,0x8003
80003808:	340acf86 	li	t2,0xcf86
8000380c:	340ccf84 	li	t4,0xcf84
80003810:	3c010001 	lui	at,0x1
80003814:	00280821 	addu	at,at,t0
80003818:	ac29cf84 	sw	t1,-12412(at)
8000381c:	3c100001 	lui	s0,0x1
80003820:	02088021 	addu	s0,s0,t0
80003824:	9210cf86 	lbu	s0,-12410(s0)
80003828:	241200f2 	li	s2,242
8000382c:	161202d9 	bne	s0,s2,80004394 <inst_error>
80003830:	00000000 	nop
80003834:	3c0948f3 	lui	t1,0x48f3
80003838:	3529e380 	ori	t1,t1,0xe380
8000383c:	3c088003 	lui	t0,0x8003
80003840:	240a7b7c 	li	t2,31612
80003844:	240c7b7c 	li	t4,31612
80003848:	ad097b7c 	sw	t1,31612(t0)
8000384c:	91107b7c 	lbu	s0,31612(t0)
80003850:	24120080 	li	s2,128
80003854:	161202cf 	bne	s0,s2,80004394 <inst_error>
80003858:	00000000 	nop
8000385c:	3c09804e 	lui	t1,0x804e
80003860:	35290100 	ori	t1,t1,0x100
80003864:	3c088003 	lui	t0,0x8003
80003868:	340ace00 	li	t2,0xce00
8000386c:	340cce00 	li	t4,0xce00
80003870:	3c010001 	lui	at,0x1
80003874:	00280821 	addu	at,at,t0
80003878:	ac29ce00 	sw	t1,-12800(at)
8000387c:	3c100001 	lui	s0,0x1
80003880:	02088021 	addu	s0,s0,t0
80003884:	9210ce00 	lbu	s0,-12800(s0)
80003888:	24120000 	li	s2,0
8000388c:	161202c1 	bne	s0,s2,80004394 <inst_error>
80003890:	00000000 	nop
80003894:	3c092763 	lui	t1,0x2763
80003898:	35295fe4 	ori	t1,t1,0x5fe4
8000389c:	3c088003 	lui	t0,0x8003
800038a0:	340af2e0 	li	t2,0xf2e0
800038a4:	340cf2e0 	li	t4,0xf2e0
800038a8:	3c010001 	lui	at,0x1
800038ac:	00280821 	addu	at,at,t0
800038b0:	ac29f2e0 	sw	t1,-3360(at)
800038b4:	3c100001 	lui	s0,0x1
800038b8:	02088021 	addu	s0,s0,t0
800038bc:	9210f2e0 	lbu	s0,-3360(s0)
800038c0:	241200e4 	li	s2,228
800038c4:	161202b3 	bne	s0,s2,80004394 <inst_error>
800038c8:	00000000 	nop
800038cc:	3c09ffcb 	lui	t1,0xffcb
800038d0:	3529e970 	ori	t1,t1,0xe970
800038d4:	3c088003 	lui	t0,0x8003
800038d8:	240a59ae 	li	t2,22958
800038dc:	240c59ac 	li	t4,22956
800038e0:	ad0959ac 	sw	t1,22956(t0)
800038e4:	911059ae 	lbu	s0,22958(t0)
800038e8:	241200cb 	li	s2,203
800038ec:	161202a9 	bne	s0,s2,80004394 <inst_error>
800038f0:	00000000 	nop
800038f4:	3c095a3c 	lui	t1,0x5a3c
800038f8:	3529ef6e 	ori	t1,t1,0xef6e
800038fc:	3c088003 	lui	t0,0x8003
80003900:	340aa605 	li	t2,0xa605
80003904:	340ca604 	li	t4,0xa604
80003908:	3c010001 	lui	at,0x1
8000390c:	00280821 	addu	at,at,t0
80003910:	ac29a604 	sw	t1,-23036(at)
80003914:	3c100001 	lui	s0,0x1
80003918:	02088021 	addu	s0,s0,t0
8000391c:	9210a605 	lbu	s0,-23035(s0)
80003920:	241200ef 	li	s2,239
80003924:	1612029b 	bne	s0,s2,80004394 <inst_error>
80003928:	00000000 	nop
8000392c:	3c09ef7b 	lui	t1,0xef7b
80003930:	35295e90 	ori	t1,t1,0x5e90
80003934:	3c088003 	lui	t0,0x8003
80003938:	340a8896 	li	t2,0x8896
8000393c:	340c8894 	li	t4,0x8894
80003940:	3c010001 	lui	at,0x1
80003944:	00280821 	addu	at,at,t0
80003948:	ac298894 	sw	t1,-30572(at)
8000394c:	3c100001 	lui	s0,0x1
80003950:	02088021 	addu	s0,s0,t0
80003954:	92108896 	lbu	s0,-30570(s0)
80003958:	2412007b 	li	s2,123
8000395c:	1612028d 	bne	s0,s2,80004394 <inst_error>
80003960:	00000000 	nop
80003964:	3c09262a 	lui	t1,0x262a
80003968:	35295e90 	ori	t1,t1,0x5e90
8000396c:	3c088003 	lui	t0,0x8003
80003970:	340af96f 	li	t2,0xf96f
80003974:	340cf96c 	li	t4,0xf96c
80003978:	3c010001 	lui	at,0x1
8000397c:	00280821 	addu	at,at,t0
80003980:	ac29f96c 	sw	t1,-1684(at)
80003984:	3c100001 	lui	s0,0x1
80003988:	02088021 	addu	s0,s0,t0
8000398c:	9210f96f 	lbu	s0,-1681(s0)
80003990:	24120026 	li	s2,38
80003994:	1612027f 	bne	s0,s2,80004394 <inst_error>
80003998:	00000000 	nop
8000399c:	3c09a267 	lui	t1,0xa267
800039a0:	352901e8 	ori	t1,t1,0x1e8
800039a4:	3c088003 	lui	t0,0x8003
800039a8:	340a9399 	li	t2,0x9399
800039ac:	340c9398 	li	t4,0x9398
800039b0:	3c010001 	lui	at,0x1
800039b4:	00280821 	addu	at,at,t0
800039b8:	ac299398 	sw	t1,-27752(at)
800039bc:	3c100001 	lui	s0,0x1
800039c0:	02088021 	addu	s0,s0,t0
800039c4:	92109399 	lbu	s0,-27751(s0)
800039c8:	24120001 	li	s2,1
800039cc:	16120271 	bne	s0,s2,80004394 <inst_error>
800039d0:	00000000 	nop
800039d4:	3c092f2f 	lui	t1,0x2f2f
800039d8:	352973f0 	ori	t1,t1,0x73f0
800039dc:	3c088003 	lui	t0,0x8003
800039e0:	340aea14 	li	t2,0xea14
800039e4:	340cea14 	li	t4,0xea14
800039e8:	3c010001 	lui	at,0x1
800039ec:	00280821 	addu	at,at,t0
800039f0:	ac29ea14 	sw	t1,-5612(at)
800039f4:	3c100001 	lui	s0,0x1
800039f8:	02088021 	addu	s0,s0,t0
800039fc:	9210ea14 	lbu	s0,-5612(s0)
80003a00:	241200f0 	li	s2,240
80003a04:	16120263 	bne	s0,s2,80004394 <inst_error>
80003a08:	00000000 	nop
80003a0c:	3c0938ce 	lui	t1,0x38ce
80003a10:	35294640 	ori	t1,t1,0x4640
80003a14:	3c088003 	lui	t0,0x8003
80003a18:	240a5782 	li	t2,22402
80003a1c:	240c5780 	li	t4,22400
80003a20:	ad095780 	sw	t1,22400(t0)
80003a24:	91105782 	lbu	s0,22402(t0)
80003a28:	241200ce 	li	s2,206
80003a2c:	16120259 	bne	s0,s2,80004394 <inst_error>
80003a30:	00000000 	nop
80003a34:	3c09bb69 	lui	t1,0xbb69
80003a38:	3529c800 	ori	t1,t1,0xc800
80003a3c:	3c088003 	lui	t0,0x8003
80003a40:	240a0b46 	li	t2,2886
80003a44:	240c0b44 	li	t4,2884
80003a48:	ad090b44 	sw	t1,2884(t0)
80003a4c:	91100b46 	lbu	s0,2886(t0)
80003a50:	24120069 	li	s2,105
80003a54:	1612024f 	bne	s0,s2,80004394 <inst_error>
80003a58:	00000000 	nop
80003a5c:	3c097b9d 	lui	t1,0x7b9d
80003a60:	3529a800 	ori	t1,t1,0xa800
80003a64:	3c088003 	lui	t0,0x8003
80003a68:	340af04a 	li	t2,0xf04a
80003a6c:	340cf048 	li	t4,0xf048
80003a70:	3c010001 	lui	at,0x1
80003a74:	00280821 	addu	at,at,t0
80003a78:	ac29f048 	sw	t1,-4024(at)
80003a7c:	3c100001 	lui	s0,0x1
80003a80:	02088021 	addu	s0,s0,t0
80003a84:	9210f04a 	lbu	s0,-4022(s0)
80003a88:	2412009d 	li	s2,157
80003a8c:	16120241 	bne	s0,s2,80004394 <inst_error>
80003a90:	00000000 	nop
80003a94:	3c095568 	lui	t1,0x5568
80003a98:	3529c260 	ori	t1,t1,0xc260
80003a9c:	3c088003 	lui	t0,0x8003
80003aa0:	240a72e0 	li	t2,29408
80003aa4:	240c72e0 	li	t4,29408
80003aa8:	ad0972e0 	sw	t1,29408(t0)
80003aac:	911072e0 	lbu	s0,29408(t0)
80003ab0:	24120060 	li	s2,96
80003ab4:	16120237 	bne	s0,s2,80004394 <inst_error>
80003ab8:	00000000 	nop
80003abc:	3c094bd9 	lui	t1,0x4bd9
80003ac0:	35293c80 	ori	t1,t1,0x3c80
80003ac4:	3c088003 	lui	t0,0x8003
80003ac8:	340aee30 	li	t2,0xee30
80003acc:	340cee30 	li	t4,0xee30
80003ad0:	3c010001 	lui	at,0x1
80003ad4:	00280821 	addu	at,at,t0
80003ad8:	ac29ee30 	sw	t1,-4560(at)
80003adc:	3c100001 	lui	s0,0x1
80003ae0:	02088021 	addu	s0,s0,t0
80003ae4:	9210ee30 	lbu	s0,-4560(s0)
80003ae8:	24120080 	li	s2,128
80003aec:	16120229 	bne	s0,s2,80004394 <inst_error>
80003af0:	00000000 	nop
80003af4:	3c0923ad 	lui	t1,0x23ad
80003af8:	3529f432 	ori	t1,t1,0xf432
80003afc:	3c088003 	lui	t0,0x8003
80003b00:	240a6009 	li	t2,24585
80003b04:	240c6008 	li	t4,24584
80003b08:	ad096008 	sw	t1,24584(t0)
80003b0c:	91106009 	lbu	s0,24585(t0)
80003b10:	241200f4 	li	s2,244
80003b14:	1612021f 	bne	s0,s2,80004394 <inst_error>
80003b18:	00000000 	nop
80003b1c:	3c096187 	lui	t1,0x6187
80003b20:	3529f420 	ori	t1,t1,0xf420
80003b24:	3c088003 	lui	t0,0x8003
80003b28:	240a2fd4 	li	t2,12244
80003b2c:	240c2fd4 	li	t4,12244
80003b30:	ad092fd4 	sw	t1,12244(t0)
80003b34:	91102fd4 	lbu	s0,12244(t0)
80003b38:	24120020 	li	s2,32
80003b3c:	16120215 	bne	s0,s2,80004394 <inst_error>
80003b40:	00000000 	nop
80003b44:	3c096836 	lui	t1,0x6836
80003b48:	35293fa0 	ori	t1,t1,0x3fa0
80003b4c:	3c088003 	lui	t0,0x8003
80003b50:	240a3e68 	li	t2,15976
80003b54:	240c3e68 	li	t4,15976
80003b58:	ad093e68 	sw	t1,15976(t0)
80003b5c:	91103e68 	lbu	s0,15976(t0)
80003b60:	241200a0 	li	s2,160
80003b64:	1612020b 	bne	s0,s2,80004394 <inst_error>
80003b68:	00000000 	nop
80003b6c:	3c093723 	lui	t1,0x3723
80003b70:	3529c7f3 	ori	t1,t1,0xc7f3
80003b74:	3c088003 	lui	t0,0x8003
80003b78:	240a43e0 	li	t2,17376
80003b7c:	240c43e0 	li	t4,17376
80003b80:	ad0943e0 	sw	t1,17376(t0)
80003b84:	911043e0 	lbu	s0,17376(t0)
80003b88:	241200f3 	li	s2,243
80003b8c:	16120201 	bne	s0,s2,80004394 <inst_error>
80003b90:	00000000 	nop
80003b94:	3c09d367 	lui	t1,0xd367
80003b98:	3529e11a 	ori	t1,t1,0xe11a
80003b9c:	3c088003 	lui	t0,0x8003
80003ba0:	240a0000 	li	t2,0
80003ba4:	240c0000 	li	t4,0
80003ba8:	ad090000 	sw	t1,0(t0)
80003bac:	91100000 	lbu	s0,0(t0)
80003bb0:	2412001a 	li	s2,26
80003bb4:	161201f7 	bne	s0,s2,80004394 <inst_error>
80003bb8:	00000000 	nop
80003bbc:	3c09ea1b 	lui	t1,0xea1b
80003bc0:	3529c1e0 	ori	t1,t1,0xc1e0
80003bc4:	3c088003 	lui	t0,0x8003
80003bc8:	240a0003 	li	t2,3
80003bcc:	240c0000 	li	t4,0
80003bd0:	ad090000 	sw	t1,0(t0)
80003bd4:	91100003 	lbu	s0,3(t0)
80003bd8:	241200ea 	li	s2,234
80003bdc:	161201ed 	bne	s0,s2,80004394 <inst_error>
80003be0:	00000000 	nop
80003be4:	3c090dbc 	lui	t1,0xdbc
80003be8:	3529d2ea 	ori	t1,t1,0xd2ea
80003bec:	3c088003 	lui	t0,0x8003
80003bf0:	240a0001 	li	t2,1
80003bf4:	240c0000 	li	t4,0
80003bf8:	ad090000 	sw	t1,0(t0)
80003bfc:	91100001 	lbu	s0,1(t0)
80003c00:	241200d2 	li	s2,210
80003c04:	161201e3 	bne	s0,s2,80004394 <inst_error>
80003c08:	00000000 	nop
80003c0c:	3c092e83 	lui	t1,0x2e83
80003c10:	352977c6 	ori	t1,t1,0x77c6
80003c14:	3c088003 	lui	t0,0x8003
80003c18:	240a0000 	li	t2,0
80003c1c:	240c0000 	li	t4,0
80003c20:	ad090000 	sw	t1,0(t0)
80003c24:	91100000 	lbu	s0,0(t0)
80003c28:	241200c6 	li	s2,198
80003c2c:	161201d9 	bne	s0,s2,80004394 <inst_error>
80003c30:	00000000 	nop
80003c34:	3c0985d1 	lui	t1,0x85d1
80003c38:	3529767c 	ori	t1,t1,0x767c
80003c3c:	3c088003 	lui	t0,0x8003
80003c40:	240a0001 	li	t2,1
80003c44:	240c0000 	li	t4,0
80003c48:	ad090000 	sw	t1,0(t0)
80003c4c:	91100001 	lbu	s0,1(t0)
80003c50:	24120076 	li	s2,118
80003c54:	161201cf 	bne	s0,s2,80004394 <inst_error>
80003c58:	00000000 	nop
80003c5c:	3c092a80 	lui	t1,0x2a80
80003c60:	35297b6e 	ori	t1,t1,0x7b6e
80003c64:	3c088003 	lui	t0,0x8003
80003c68:	240a0000 	li	t2,0
80003c6c:	240c0000 	li	t4,0
80003c70:	ad090000 	sw	t1,0(t0)
80003c74:	91100000 	lbu	s0,0(t0)
80003c78:	2412006e 	li	s2,110
80003c7c:	161201c5 	bne	s0,s2,80004394 <inst_error>
80003c80:	00000000 	nop
80003c84:	3c097c7e 	lui	t1,0x7c7e
80003c88:	3529468b 	ori	t1,t1,0x468b
80003c8c:	3c088003 	lui	t0,0x8003
80003c90:	240a0001 	li	t2,1
80003c94:	240c0000 	li	t4,0
80003c98:	ad090000 	sw	t1,0(t0)
80003c9c:	91100001 	lbu	s0,1(t0)
80003ca0:	24120046 	li	s2,70
80003ca4:	161201bb 	bne	s0,s2,80004394 <inst_error>
80003ca8:	00000000 	nop
80003cac:	3c09766b 	lui	t1,0x766b
80003cb0:	352930aa 	ori	t1,t1,0x30aa
80003cb4:	3c088003 	lui	t0,0x8003
80003cb8:	240a0000 	li	t2,0
80003cbc:	240c0000 	li	t4,0
80003cc0:	ad090000 	sw	t1,0(t0)
80003cc4:	91100000 	lbu	s0,0(t0)
80003cc8:	241200aa 	li	s2,170
80003ccc:	161201b1 	bne	s0,s2,80004394 <inst_error>
80003cd0:	00000000 	nop
80003cd4:	3c09f311 	lui	t1,0xf311
80003cd8:	35292744 	ori	t1,t1,0x2744
80003cdc:	3c088003 	lui	t0,0x8003
80003ce0:	240a0003 	li	t2,3
80003ce4:	240c0000 	li	t4,0
80003ce8:	ad090000 	sw	t1,0(t0)
80003cec:	91100003 	lbu	s0,3(t0)
80003cf0:	241200f3 	li	s2,243
80003cf4:	161201a7 	bne	s0,s2,80004394 <inst_error>
80003cf8:	00000000 	nop
80003cfc:	3c0924da 	lui	t1,0x24da
80003d00:	3529377c 	ori	t1,t1,0x377c
80003d04:	3c088003 	lui	t0,0x8003
80003d08:	240a0001 	li	t2,1
80003d0c:	240c0000 	li	t4,0
80003d10:	ad090000 	sw	t1,0(t0)
80003d14:	91100001 	lbu	s0,1(t0)
80003d18:	24120037 	li	s2,55
80003d1c:	1612019d 	bne	s0,s2,80004394 <inst_error>
80003d20:	00000000 	nop
80003d24:	3c099eda 	lui	t1,0x9eda
80003d28:	35291a30 	ori	t1,t1,0x1a30
80003d2c:	3c088003 	lui	t0,0x8003
80003d30:	240a0001 	li	t2,1
80003d34:	240c0000 	li	t4,0
80003d38:	ad090000 	sw	t1,0(t0)
80003d3c:	91100001 	lbu	s0,1(t0)
80003d40:	2412001a 	li	s2,26
80003d44:	16120193 	bne	s0,s2,80004394 <inst_error>
80003d48:	00000000 	nop
80003d4c:	3c091e77 	lui	t1,0x1e77
80003d50:	352930fe 	ori	t1,t1,0x30fe
80003d54:	3c088003 	lui	t0,0x8003
80003d58:	240a0000 	li	t2,0
80003d5c:	240c0000 	li	t4,0
80003d60:	ad090000 	sw	t1,0(t0)
80003d64:	91100000 	lbu	s0,0(t0)
80003d68:	241200fe 	li	s2,254
80003d6c:	16120189 	bne	s0,s2,80004394 <inst_error>
80003d70:	00000000 	nop
80003d74:	3c094acf 	lui	t1,0x4acf
80003d78:	3529dea0 	ori	t1,t1,0xdea0
80003d7c:	3c088003 	lui	t0,0x8003
80003d80:	240a0001 	li	t2,1
80003d84:	240c0000 	li	t4,0
80003d88:	ad090000 	sw	t1,0(t0)
80003d8c:	91100001 	lbu	s0,1(t0)
80003d90:	241200de 	li	s2,222
80003d94:	1612017f 	bne	s0,s2,80004394 <inst_error>
80003d98:	00000000 	nop
80003d9c:	3c0984b7 	lui	t1,0x84b7
80003da0:	35290109 	ori	t1,t1,0x109
80003da4:	3c088003 	lui	t0,0x8003
80003da8:	240a0003 	li	t2,3
80003dac:	240c0000 	li	t4,0
80003db0:	ad090000 	sw	t1,0(t0)
80003db4:	91100003 	lbu	s0,3(t0)
80003db8:	24120084 	li	s2,132
80003dbc:	16120175 	bne	s0,s2,80004394 <inst_error>
80003dc0:	00000000 	nop
80003dc4:	3c09e4fb 	lui	t1,0xe4fb
80003dc8:	35293fe0 	ori	t1,t1,0x3fe0
80003dcc:	3c088003 	lui	t0,0x8003
80003dd0:	240a0002 	li	t2,2
80003dd4:	240c0000 	li	t4,0
80003dd8:	ad090000 	sw	t1,0(t0)
80003ddc:	91100002 	lbu	s0,2(t0)
80003de0:	241200fb 	li	s2,251
80003de4:	1612016b 	bne	s0,s2,80004394 <inst_error>
80003de8:	00000000 	nop
80003dec:	3c095a32 	lui	t1,0x5a32
80003df0:	35291c70 	ori	t1,t1,0x1c70
80003df4:	3c088003 	lui	t0,0x8003
80003df8:	240a0003 	li	t2,3
80003dfc:	240c0000 	li	t4,0
80003e00:	ad090000 	sw	t1,0(t0)
80003e04:	91100003 	lbu	s0,3(t0)
80003e08:	2412005a 	li	s2,90
80003e0c:	16120161 	bne	s0,s2,80004394 <inst_error>
80003e10:	00000000 	nop
80003e14:	3c092d4b 	lui	t1,0x2d4b
80003e18:	3529afb8 	ori	t1,t1,0xafb8
80003e1c:	3c088003 	lui	t0,0x8003
80003e20:	240a0000 	li	t2,0
80003e24:	240c0000 	li	t4,0
80003e28:	ad090000 	sw	t1,0(t0)
80003e2c:	91100000 	lbu	s0,0(t0)
80003e30:	241200b8 	li	s2,184
80003e34:	16120157 	bne	s0,s2,80004394 <inst_error>
80003e38:	00000000 	nop
80003e3c:	3c093b25 	lui	t1,0x3b25
80003e40:	35290b23 	ori	t1,t1,0xb23
80003e44:	3c088003 	lui	t0,0x8003
80003e48:	240a0001 	li	t2,1
80003e4c:	240c0000 	li	t4,0
80003e50:	ad090000 	sw	t1,0(t0)
80003e54:	91100001 	lbu	s0,1(t0)
80003e58:	2412000b 	li	s2,11
80003e5c:	1612014d 	bne	s0,s2,80004394 <inst_error>
80003e60:	00000000 	nop
80003e64:	3c095f9c 	lui	t1,0x5f9c
80003e68:	352975e8 	ori	t1,t1,0x75e8
80003e6c:	3c088003 	lui	t0,0x8003
80003e70:	240a0000 	li	t2,0
80003e74:	240c0000 	li	t4,0
80003e78:	ad090000 	sw	t1,0(t0)
80003e7c:	91100000 	lbu	s0,0(t0)
80003e80:	241200e8 	li	s2,232
80003e84:	16120143 	bne	s0,s2,80004394 <inst_error>
80003e88:	00000000 	nop
80003e8c:	3c09c37b 	lui	t1,0xc37b
80003e90:	352966a0 	ori	t1,t1,0x66a0
80003e94:	3c088003 	lui	t0,0x8003
80003e98:	240a0002 	li	t2,2
80003e9c:	240c0000 	li	t4,0
80003ea0:	ad090000 	sw	t1,0(t0)
80003ea4:	91100002 	lbu	s0,2(t0)
80003ea8:	2412007b 	li	s2,123
80003eac:	16120139 	bne	s0,s2,80004394 <inst_error>
80003eb0:	00000000 	nop
80003eb4:	3c099beb 	lui	t1,0x9beb
80003eb8:	352924a0 	ori	t1,t1,0x24a0
80003ebc:	3c088003 	lui	t0,0x8003
80003ec0:	240a0000 	li	t2,0
80003ec4:	240c0000 	li	t4,0
80003ec8:	ad090000 	sw	t1,0(t0)
80003ecc:	91100000 	lbu	s0,0(t0)
80003ed0:	241200a0 	li	s2,160
80003ed4:	1612012f 	bne	s0,s2,80004394 <inst_error>
80003ed8:	00000000 	nop
80003edc:	3c0910fd 	lui	t1,0x10fd
80003ee0:	3529c3f6 	ori	t1,t1,0xc3f6
80003ee4:	3c088003 	lui	t0,0x8003
80003ee8:	240a0003 	li	t2,3
80003eec:	240c0000 	li	t4,0
80003ef0:	ad090000 	sw	t1,0(t0)
80003ef4:	91100003 	lbu	s0,3(t0)
80003ef8:	24120010 	li	s2,16
80003efc:	16120125 	bne	s0,s2,80004394 <inst_error>
80003f00:	00000000 	nop
80003f04:	3c0958cf 	lui	t1,0x58cf
80003f08:	35291c72 	ori	t1,t1,0x1c72
80003f0c:	3c088003 	lui	t0,0x8003
80003f10:	240a0002 	li	t2,2
80003f14:	240c0000 	li	t4,0
80003f18:	ad090000 	sw	t1,0(t0)
80003f1c:	91100002 	lbu	s0,2(t0)
80003f20:	241200cf 	li	s2,207
80003f24:	1612011b 	bne	s0,s2,80004394 <inst_error>
80003f28:	00000000 	nop
80003f2c:	3c0901e4 	lui	t1,0x1e4
80003f30:	3529337c 	ori	t1,t1,0x337c
80003f34:	3c088003 	lui	t0,0x8003
80003f38:	240a0002 	li	t2,2
80003f3c:	240c0000 	li	t4,0
80003f40:	ad090000 	sw	t1,0(t0)
80003f44:	91100002 	lbu	s0,2(t0)
80003f48:	241200e4 	li	s2,228
80003f4c:	16120111 	bne	s0,s2,80004394 <inst_error>
80003f50:	00000000 	nop
80003f54:	3c09cadc 	lui	t1,0xcadc
80003f58:	3529a1a0 	ori	t1,t1,0xa1a0
80003f5c:	3c088003 	lui	t0,0x8003
80003f60:	240a0001 	li	t2,1
80003f64:	240c0000 	li	t4,0
80003f68:	ad090000 	sw	t1,0(t0)
80003f6c:	91100001 	lbu	s0,1(t0)
80003f70:	241200a1 	li	s2,161
80003f74:	16120107 	bne	s0,s2,80004394 <inst_error>
80003f78:	00000000 	nop
80003f7c:	3c09e439 	lui	t1,0xe439
80003f80:	3529bcca 	ori	t1,t1,0xbcca
80003f84:	3c088003 	lui	t0,0x8003
80003f88:	240a0002 	li	t2,2
80003f8c:	240c0000 	li	t4,0
80003f90:	ad090000 	sw	t1,0(t0)
80003f94:	91100002 	lbu	s0,2(t0)
80003f98:	24120039 	li	s2,57
80003f9c:	161200fd 	bne	s0,s2,80004394 <inst_error>
80003fa0:	00000000 	nop
80003fa4:	3c09cac5 	lui	t1,0xcac5
80003fa8:	35298484 	ori	t1,t1,0x8484
80003fac:	3c088003 	lui	t0,0x8003
80003fb0:	240a0002 	li	t2,2
80003fb4:	240c0000 	li	t4,0
80003fb8:	ad090000 	sw	t1,0(t0)
80003fbc:	91100002 	lbu	s0,2(t0)
80003fc0:	241200c5 	li	s2,197
80003fc4:	161200f3 	bne	s0,s2,80004394 <inst_error>
80003fc8:	00000000 	nop
80003fcc:	3c09d6fd 	lui	t1,0xd6fd
80003fd0:	35295b64 	ori	t1,t1,0x5b64
80003fd4:	3c088003 	lui	t0,0x8003
80003fd8:	240a0000 	li	t2,0
80003fdc:	240c0000 	li	t4,0
80003fe0:	ad090000 	sw	t1,0(t0)
80003fe4:	91100000 	lbu	s0,0(t0)
80003fe8:	24120064 	li	s2,100
80003fec:	161200e9 	bne	s0,s2,80004394 <inst_error>
80003ff0:	00000000 	nop
80003ff4:	3c090b32 	lui	t1,0xb32
80003ff8:	352979d8 	ori	t1,t1,0x79d8
80003ffc:	3c088003 	lui	t0,0x8003
80004000:	240a0003 	li	t2,3
80004004:	240c0000 	li	t4,0
80004008:	ad090000 	sw	t1,0(t0)
8000400c:	91100003 	lbu	s0,3(t0)
80004010:	2412000b 	li	s2,11
80004014:	161200df 	bne	s0,s2,80004394 <inst_error>
80004018:	00000000 	nop
8000401c:	3c096307 	lui	t1,0x6307
80004020:	35294a44 	ori	t1,t1,0x4a44
80004024:	3c088003 	lui	t0,0x8003
80004028:	240a0001 	li	t2,1
8000402c:	240c0000 	li	t4,0
80004030:	ad090000 	sw	t1,0(t0)
80004034:	91100001 	lbu	s0,1(t0)
80004038:	2412004a 	li	s2,74
8000403c:	161200d5 	bne	s0,s2,80004394 <inst_error>
80004040:	00000000 	nop
80004044:	3c09d84c 	lui	t1,0xd84c
80004048:	35298078 	ori	t1,t1,0x8078
8000404c:	3c088003 	lui	t0,0x8003
80004050:	240a0003 	li	t2,3
80004054:	240c0000 	li	t4,0
80004058:	ad090000 	sw	t1,0(t0)
8000405c:	91100003 	lbu	s0,3(t0)
80004060:	241200d8 	li	s2,216
80004064:	161200cb 	bne	s0,s2,80004394 <inst_error>
80004068:	00000000 	nop
8000406c:	3c09f9e9 	lui	t1,0xf9e9
80004070:	3529931a 	ori	t1,t1,0x931a
80004074:	3c088003 	lui	t0,0x8003
80004078:	240a0003 	li	t2,3
8000407c:	240c0000 	li	t4,0
80004080:	ad090000 	sw	t1,0(t0)
80004084:	91100003 	lbu	s0,3(t0)
80004088:	241200f9 	li	s2,249
8000408c:	161200c1 	bne	s0,s2,80004394 <inst_error>
80004090:	00000000 	nop
80004094:	3c091e1d 	lui	t1,0x1e1d
80004098:	352911d0 	ori	t1,t1,0x11d0
8000409c:	3c088003 	lui	t0,0x8003
800040a0:	240a0003 	li	t2,3
800040a4:	240c0000 	li	t4,0
800040a8:	ad090000 	sw	t1,0(t0)
800040ac:	91100003 	lbu	s0,3(t0)
800040b0:	2412001e 	li	s2,30
800040b4:	161200b7 	bne	s0,s2,80004394 <inst_error>
800040b8:	00000000 	nop
800040bc:	3c09d4be 	lui	t1,0xd4be
800040c0:	35290052 	ori	t1,t1,0x52
800040c4:	3c088003 	lui	t0,0x8003
800040c8:	240a0003 	li	t2,3
800040cc:	240c0000 	li	t4,0
800040d0:	ad090000 	sw	t1,0(t0)
800040d4:	91100003 	lbu	s0,3(t0)
800040d8:	241200d4 	li	s2,212
800040dc:	161200ad 	bne	s0,s2,80004394 <inst_error>
800040e0:	00000000 	nop
800040e4:	3c09c1d5 	lui	t1,0xc1d5
800040e8:	3529e430 	ori	t1,t1,0xe430
800040ec:	3c088003 	lui	t0,0x8003
800040f0:	240a0001 	li	t2,1
800040f4:	240c0000 	li	t4,0
800040f8:	ad090000 	sw	t1,0(t0)
800040fc:	91100001 	lbu	s0,1(t0)
80004100:	241200e4 	li	s2,228
80004104:	161200a3 	bne	s0,s2,80004394 <inst_error>
80004108:	00000000 	nop
8000410c:	3c09f4fd 	lui	t1,0xf4fd
80004110:	352959b0 	ori	t1,t1,0x59b0
80004114:	3c088003 	lui	t0,0x8003
80004118:	240a0000 	li	t2,0
8000411c:	240c0000 	li	t4,0
80004120:	ad090000 	sw	t1,0(t0)
80004124:	91100000 	lbu	s0,0(t0)
80004128:	241200b0 	li	s2,176
8000412c:	16120099 	bne	s0,s2,80004394 <inst_error>
80004130:	00000000 	nop
80004134:	3c09dd4f 	lui	t1,0xdd4f
80004138:	35293800 	ori	t1,t1,0x3800
8000413c:	3c088003 	lui	t0,0x8003
80004140:	240a0002 	li	t2,2
80004144:	240c0000 	li	t4,0
80004148:	ad090000 	sw	t1,0(t0)
8000414c:	91100002 	lbu	s0,2(t0)
80004150:	2412004f 	li	s2,79
80004154:	1612008f 	bne	s0,s2,80004394 <inst_error>
80004158:	00000000 	nop
8000415c:	3c099b0f 	lui	t1,0x9b0f
80004160:	35291ecc 	ori	t1,t1,0x1ecc
80004164:	3c088003 	lui	t0,0x8003
80004168:	240a0003 	li	t2,3
8000416c:	240c0000 	li	t4,0
80004170:	ad090000 	sw	t1,0(t0)
80004174:	91100003 	lbu	s0,3(t0)
80004178:	2412009b 	li	s2,155
8000417c:	16120085 	bne	s0,s2,80004394 <inst_error>
80004180:	00000000 	nop
80004184:	3c09b3f1 	lui	t1,0xb3f1
80004188:	35290774 	ori	t1,t1,0x774
8000418c:	3c088003 	lui	t0,0x8003
80004190:	240a0001 	li	t2,1
80004194:	240c0000 	li	t4,0
80004198:	ad090000 	sw	t1,0(t0)
8000419c:	91100001 	lbu	s0,1(t0)
800041a0:	24120007 	li	s2,7
800041a4:	1612007b 	bne	s0,s2,80004394 <inst_error>
800041a8:	00000000 	nop
800041ac:	3c0987ec 	lui	t1,0x87ec
800041b0:	352925fc 	ori	t1,t1,0x25fc
800041b4:	3c088003 	lui	t0,0x8003
800041b8:	240a0001 	li	t2,1
800041bc:	240c0000 	li	t4,0
800041c0:	ad090000 	sw	t1,0(t0)
800041c4:	91100001 	lbu	s0,1(t0)
800041c8:	24120025 	li	s2,37
800041cc:	16120071 	bne	s0,s2,80004394 <inst_error>
800041d0:	00000000 	nop
800041d4:	3c0907e1 	lui	t1,0x7e1
800041d8:	3529f300 	ori	t1,t1,0xf300
800041dc:	3c088003 	lui	t0,0x8003
800041e0:	240a0000 	li	t2,0
800041e4:	240c0000 	li	t4,0
800041e8:	ad090000 	sw	t1,0(t0)
800041ec:	91100000 	lbu	s0,0(t0)
800041f0:	24120000 	li	s2,0
800041f4:	16120067 	bne	s0,s2,80004394 <inst_error>
800041f8:	00000000 	nop
800041fc:	3c09933c 	lui	t1,0x933c
80004200:	3529b3e0 	ori	t1,t1,0xb3e0
80004204:	3c088003 	lui	t0,0x8003
80004208:	240a0003 	li	t2,3
8000420c:	240c0000 	li	t4,0
80004210:	ad090000 	sw	t1,0(t0)
80004214:	91100003 	lbu	s0,3(t0)
80004218:	24120093 	li	s2,147
8000421c:	1612005d 	bne	s0,s2,80004394 <inst_error>
80004220:	00000000 	nop
80004224:	3c09ace9 	lui	t1,0xace9
80004228:	3529f794 	ori	t1,t1,0xf794
8000422c:	3c088003 	lui	t0,0x8003
80004230:	240a0000 	li	t2,0
80004234:	240c0000 	li	t4,0
80004238:	ad090000 	sw	t1,0(t0)
8000423c:	91100000 	lbu	s0,0(t0)
80004240:	24120094 	li	s2,148
80004244:	16120053 	bne	s0,s2,80004394 <inst_error>
80004248:	00000000 	nop
8000424c:	3c0960a3 	lui	t1,0x60a3
80004250:	3529b6d8 	ori	t1,t1,0xb6d8
80004254:	3c088003 	lui	t0,0x8003
80004258:	240a0001 	li	t2,1
8000425c:	240c0000 	li	t4,0
80004260:	ad090000 	sw	t1,0(t0)
80004264:	91100001 	lbu	s0,1(t0)
80004268:	241200b6 	li	s2,182
8000426c:	16120049 	bne	s0,s2,80004394 <inst_error>
80004270:	00000000 	nop
80004274:	3c09954e 	lui	t1,0x954e
80004278:	3529b5ee 	ori	t1,t1,0xb5ee
8000427c:	3c088003 	lui	t0,0x8003
80004280:	240a0001 	li	t2,1
80004284:	240c0000 	li	t4,0
80004288:	ad090000 	sw	t1,0(t0)
8000428c:	91100001 	lbu	s0,1(t0)
80004290:	241200b5 	li	s2,181
80004294:	1612003f 	bne	s0,s2,80004394 <inst_error>
80004298:	00000000 	nop
8000429c:	3c0995ff 	lui	t1,0x95ff
800042a0:	3529cf80 	ori	t1,t1,0xcf80
800042a4:	3c088003 	lui	t0,0x8003
800042a8:	240a0003 	li	t2,3
800042ac:	240c0000 	li	t4,0
800042b0:	ad090000 	sw	t1,0(t0)
800042b4:	91100003 	lbu	s0,3(t0)
800042b8:	24120095 	li	s2,149
800042bc:	16120035 	bne	s0,s2,80004394 <inst_error>
800042c0:	00000000 	nop
800042c4:	3c09e20e 	lui	t1,0xe20e
800042c8:	3529fe40 	ori	t1,t1,0xfe40
800042cc:	3c088003 	lui	t0,0x8003
800042d0:	240a0000 	li	t2,0
800042d4:	240c0000 	li	t4,0
800042d8:	ad090000 	sw	t1,0(t0)
800042dc:	91100000 	lbu	s0,0(t0)
800042e0:	24120040 	li	s2,64
800042e4:	1612002b 	bne	s0,s2,80004394 <inst_error>
800042e8:	00000000 	nop
800042ec:	3c09826e 	lui	t1,0x826e
800042f0:	35290c40 	ori	t1,t1,0xc40
800042f4:	3c088003 	lui	t0,0x8003
800042f8:	240a0003 	li	t2,3
800042fc:	240c0000 	li	t4,0
80004300:	ad090000 	sw	t1,0(t0)
80004304:	91100003 	lbu	s0,3(t0)
80004308:	24120082 	li	s2,130
8000430c:	16120021 	bne	s0,s2,80004394 <inst_error>
80004310:	00000000 	nop
80004314:	3c093c7f 	lui	t1,0x3c7f
80004318:	35293796 	ori	t1,t1,0x3796
8000431c:	3c088003 	lui	t0,0x8003
80004320:	240a0003 	li	t2,3
80004324:	240c0000 	li	t4,0
80004328:	ad090000 	sw	t1,0(t0)
8000432c:	91100003 	lbu	s0,3(t0)
80004330:	2412003c 	li	s2,60
80004334:	16120017 	bne	s0,s2,80004394 <inst_error>
80004338:	00000000 	nop
8000433c:	3c09d82d 	lui	t1,0xd82d
80004340:	35294498 	ori	t1,t1,0x4498
80004344:	3c088003 	lui	t0,0x8003
80004348:	240a0002 	li	t2,2
8000434c:	240c0000 	li	t4,0
80004350:	ad090000 	sw	t1,0(t0)
80004354:	91100002 	lbu	s0,2(t0)
80004358:	2412002d 	li	s2,45
8000435c:	1612000d 	bne	s0,s2,80004394 <inst_error>
80004360:	00000000 	nop
80004364:	24090000 	li	t1,0
80004368:	3c088003 	lui	t0,0x8003
8000436c:	240a0000 	li	t2,0
80004370:	240c0000 	li	t4,0
80004374:	ad090000 	sw	t1,0(t0)
80004378:	91100000 	lbu	s0,0(t0)
8000437c:	24120000 	li	s2,0
80004380:	16120004 	bne	s0,s2,80004394 <inst_error>
80004384:	00000000 	nop
80004388:	14400002 	bnez	v0,80004394 <inst_error>
8000438c:	00000000 	nop
80004390:	26730001 	addiu	s3,s3,1

80004394 <inst_error>:
80004394:	00934025 	or	t0,a0,s3
80004398:	ae280000 	sw	t0,0(s1)
8000439c:	03e00008 	jr	ra
800043a0:	00000000 	nop
800043a4:	00000000 	nop

800043a8 <n29_beq_test>:
800043a8:	3c041d00 	lui	a0,0x1d00
800043ac:	24020000 	li	v0,0
800043b0:	3c0c0fb1 	lui	t4,0xfb1
800043b4:	358c6a80 	ori	t4,t4,0x6a80
800043b8:	3c0ddf22 	lui	t5,0xdf22
800043bc:	35ad5ddc 	ori	t5,t5,0x5ddc
800043c0:	24100000 	li	s0,0
800043c4:	24120000 	li	s2,0
800043c8:	1000000d 	b	80004400 <n29_beq_test+0x58>
800043cc:	00000000 	nop
800043d0:	3c100fb1 	lui	s0,0xfb1
800043d4:	36106a80 	ori	s0,s0,0x6a80
800043d8:	1128001a 	beq	t1,t0,80004444 <n29_beq_test+0x9c>
800043dc:	00000000 	nop
800043e0:	1000001a 	b	8000444c <n29_beq_test+0xa4>
800043e4:	00000000 	nop
800043e8:	00000021 	move	zero,zero
800043ec:	00000021 	move	zero,zero
800043f0:	00000021 	move	zero,zero
800043f4:	00000021 	move	zero,zero
800043f8:	00000021 	move	zero,zero
800043fc:	00000021 	move	zero,zero
80004400:	3c085291 	lui	t0,0x5291
80004404:	35089078 	ori	t0,t0,0x9078
80004408:	3c098146 	lui	t1,0x8146
8000440c:	35298400 	ori	t1,t1,0x8400
80004410:	1109ffef 	beq	t0,t1,800043d0 <n29_beq_test+0x28>
80004414:	00000000 	nop
80004418:	1000000c 	b	8000444c <n29_beq_test+0xa4>
8000441c:	00000000 	nop
80004420:	00000021 	move	zero,zero
80004424:	00000021 	move	zero,zero
80004428:	00000021 	move	zero,zero
8000442c:	00000021 	move	zero,zero
80004430:	00000021 	move	zero,zero
80004434:	00000021 	move	zero,zero
80004438:	00000021 	move	zero,zero
8000443c:	00000021 	move	zero,zero
80004440:	00000021 	move	zero,zero
80004444:	3c12df22 	lui	s2,0xdf22
80004448:	36525ddc 	ori	s2,s2,0x5ddc
8000444c:	00000000 	nop
80004450:	24140000 	li	s4,0
80004454:	16140007 	bne	s0,s4,80004474 <inst_error>
80004458:	00000000 	nop
8000445c:	24150000 	li	s5,0
80004460:	16550004 	bne	s2,s5,80004474 <inst_error>
80004464:	00000000 	nop
80004468:	14400002 	bnez	v0,80004474 <inst_error>
8000446c:	00000000 	nop
80004470:	26730001 	addiu	s3,s3,1

80004474 <inst_error>:
80004474:	00934025 	or	t0,a0,s3
80004478:	ae280000 	sw	t0,0(s1)
8000447c:	03e00008 	jr	ra
80004480:	00000000 	nop
80004484:	00000000 	nop

80004488 <n22_xori_test>:
80004488:	3c041600 	lui	a0,0x1600
8000448c:	24020000 	li	v0,0
80004490:	3c084406 	lui	t0,0x4406
80004494:	3508a500 	ori	t0,t0,0xa500
80004498:	240914bf 	li	t1,5311
8000449c:	391014bf 	xori	s0,t0,0x14bf
800044a0:	3c124406 	lui	s2,0x4406
800044a4:	3652b1bf 	ori	s2,s2,0xb1bf
800044a8:	16120004 	bne	s0,s2,800044bc <inst_error>
800044ac:	00000000 	nop
800044b0:	14400002 	bnez	v0,800044bc <inst_error>
800044b4:	00000000 	nop
800044b8:	26730001 	addiu	s3,s3,1

800044bc <inst_error>:
800044bc:	00934025 	or	t0,a0,s3
800044c0:	ae280000 	sw	t0,0(s1)
800044c4:	03e00008 	jr	ra
800044c8:	00000000 	nop
800044cc:	00000000 	nop

800044d0 <n31_bgez_test>:
800044d0:	3c041f00 	lui	a0,0x1f00
800044d4:	24020000 	li	v0,0
800044d8:	3c0cbe6e 	lui	t4,0xbe6e
800044dc:	358c1670 	ori	t4,t4,0x1670
800044e0:	3c0d28b8 	lui	t5,0x28b8
800044e4:	35ad50c0 	ori	t5,t5,0x50c0
800044e8:	24100000 	li	s0,0
800044ec:	24120000 	li	s2,0
800044f0:	1000000d 	b	80004528 <n31_bgez_test+0x58>
800044f4:	00000000 	nop
800044f8:	3c10be6e 	lui	s0,0xbe6e
800044fc:	36101670 	ori	s0,s0,0x1670
80004500:	05010010 	bgez	t0,80004544 <n31_bgez_test+0x74>
80004504:	00000000 	nop
80004508:	10000010 	b	8000454c <n31_bgez_test+0x7c>
8000450c:	00000000 	nop
80004510:	00000021 	move	zero,zero
80004514:	00000021 	move	zero,zero
80004518:	00000021 	move	zero,zero
8000451c:	00000021 	move	zero,zero
80004520:	00000021 	move	zero,zero
80004524:	00000021 	move	zero,zero
80004528:	3c08dd4f 	lui	t0,0xdd4f
8000452c:	35081370 	ori	t0,t0,0x1370
80004530:	0501fff1 	bgez	t0,800044f8 <n31_bgez_test+0x28>
80004534:	00000000 	nop
80004538:	10000004 	b	8000454c <n31_bgez_test+0x7c>
8000453c:	00000000 	nop
80004540:	00000021 	move	zero,zero
80004544:	3c1228b8 	lui	s2,0x28b8
80004548:	365250c0 	ori	s2,s2,0x50c0
8000454c:	00000000 	nop
80004550:	24140000 	li	s4,0
80004554:	16140007 	bne	s0,s4,80004574 <inst_error>
80004558:	00000000 	nop
8000455c:	24150000 	li	s5,0
80004560:	16550004 	bne	s2,s5,80004574 <inst_error>
80004564:	00000000 	nop
80004568:	14400002 	bnez	v0,80004574 <inst_error>
8000456c:	00000000 	nop
80004570:	26730001 	addiu	s3,s3,1

80004574 <inst_error>:
80004574:	00934025 	or	t0,a0,s3
80004578:	ae280000 	sw	t0,0(s1)
8000457c:	03e00008 	jr	ra
80004580:	00000000 	nop
80004584:	00000000 	nop

80004588 <n16_andi_test>:
80004588:	3c041000 	lui	a0,0x1000
8000458c:	24020000 	li	v0,0
80004590:	3c084c23 	lui	t0,0x4c23
80004594:	3508cdd4 	ori	t0,t0,0xcdd4
80004598:	24095e89 	li	t1,24201
8000459c:	31105e89 	andi	s0,t0,0x5e89
800045a0:	24124c80 	li	s2,19584
800045a4:	16120004 	bne	s0,s2,800045b8 <inst_error>
800045a8:	00000000 	nop
800045ac:	14400002 	bnez	v0,800045b8 <inst_error>
800045b0:	00000000 	nop
800045b4:	26730001 	addiu	s3,s3,1

800045b8 <inst_error>:
800045b8:	00934025 	or	t0,a0,s3
800045bc:	ae280000 	sw	t0,0(s1)
800045c0:	03e00008 	jr	ra
800045c4:	00000000 	nop

800045c8 <n23_sll_test>:
800045c8:	3c041700 	lui	a0,0x1700
800045cc:	24020000 	li	v0,0
800045d0:	3c084799 	lui	t0,0x4799
800045d4:	35084e5e 	ori	t0,t0,0x4e5e
800045d8:	24090001 	li	t1,1
800045dc:	00088040 	sll	s0,t0,0x1
800045e0:	3c128f32 	lui	s2,0x8f32
800045e4:	36529cbc 	ori	s2,s2,0x9cbc
800045e8:	16120004 	bne	s0,s2,800045fc <inst_error>
800045ec:	00000000 	nop
800045f0:	14400002 	bnez	v0,800045fc <inst_error>
800045f4:	00000000 	nop
800045f8:	26730001 	addiu	s3,s3,1

800045fc <inst_error>:
800045fc:	00934025 	or	t0,a0,s3
80004600:	ae280000 	sw	t0,0(s1)
80004604:	03e00008 	jr	ra
80004608:	00000000 	nop
8000460c:	00000000 	nop

80004610 <n26_srav_test>:
80004610:	3c041a00 	lui	a0,0x1a00
80004614:	24020000 	li	v0,0
80004618:	3c083e59 	lui	t0,0x3e59
8000461c:	35084300 	ori	t0,t0,0x4300
80004620:	24090003 	li	t1,3
80004624:	01288007 	srav	s0,t0,t1
80004628:	3c1207cb 	lui	s2,0x7cb
8000462c:	36522860 	ori	s2,s2,0x2860
80004630:	16120004 	bne	s0,s2,80004644 <inst_error>
80004634:	00000000 	nop
80004638:	14400002 	bnez	v0,80004644 <inst_error>
8000463c:	00000000 	nop
80004640:	26730001 	addiu	s3,s3,1

80004644 <inst_error>:
80004644:	00934025 	or	t0,a0,s3
80004648:	ae280000 	sw	t0,0(s1)
8000464c:	03e00008 	jr	ra
80004650:	00000000 	nop
80004654:	00000000 	nop

80004658 <n51_lw_test>:
80004658:	3c043300 	lui	a0,0x3300
8000465c:	24020000 	li	v0,0
80004660:	3c09c822 	lui	t1,0xc822
80004664:	3529c7e8 	ori	t1,t1,0xc7e8
80004668:	3c088002 	lui	t0,0x8002
8000466c:	350834c0 	ori	t0,t0,0x34c0
80004670:	240a66a8 	li	t2,26280
80004674:	240c66a8 	li	t4,26280
80004678:	ad0966a8 	sw	t1,26280(t0)
8000467c:	8d1066a8 	lw	s0,26280(t0)
80004680:	3c12c822 	lui	s2,0xc822
80004684:	3652c7e8 	ori	s2,s2,0xc7e8
80004688:	16120004 	bne	s0,s2,8000469c <inst_error>
8000468c:	00000000 	nop
80004690:	14400002 	bnez	v0,8000469c <inst_error>
80004694:	00000000 	nop
80004698:	26730001 	addiu	s3,s3,1

8000469c <inst_error>:
8000469c:	00934025 	or	t0,a0,s3
800046a0:	ae280000 	sw	t0,0(s1)
800046a4:	03e00008 	jr	ra
800046a8:	00000000 	nop
800046ac:	00000000 	nop

800046b0 <n41_mfhi_test>:
800046b0:	3c042900 	lui	a0,0x2900
800046b4:	24020000 	li	v0,0
800046b8:	3c08bd59 	lui	t0,0xbd59
800046bc:	350872d1 	ori	t0,t0,0x72d1
800046c0:	01000011 	mthi	t0
800046c4:	00008010 	mfhi	s0
800046c8:	3c12bd59 	lui	s2,0xbd59
800046cc:	365272d1 	ori	s2,s2,0x72d1
800046d0:	16120004 	bne	s0,s2,800046e4 <inst_error>
800046d4:	00000000 	nop
800046d8:	14400002 	bnez	v0,800046e4 <inst_error>
800046dc:	00000000 	nop
800046e0:	26730001 	addiu	s3,s3,1

800046e4 <inst_error>:
800046e4:	00934025 	or	t0,a0,s3
800046e8:	ae280000 	sw	t0,0(s1)
800046ec:	03e00008 	jr	ra
800046f0:	00000000 	nop
800046f4:	00000000 	nop

800046f8 <n32_bgtz_test>:
800046f8:	3c042000 	lui	a0,0x2000
800046fc:	24020000 	li	v0,0
80004700:	3c0c40b4 	lui	t4,0x40b4
80004704:	358c0d40 	ori	t4,t4,0xd40
80004708:	3c0d45eb 	lui	t5,0x45eb
8000470c:	35ad9450 	ori	t5,t5,0x9450
80004710:	24100000 	li	s0,0
80004714:	24120000 	li	s2,0
80004718:	10000015 	b	80004770 <n32_bgtz_test+0x78>
8000471c:	00000000 	nop
80004720:	3c1040b4 	lui	s0,0x40b4
80004724:	36100d40 	ori	s0,s0,0xd40
80004728:	1d00001c 	bgtz	t0,8000479c <n32_bgtz_test+0xa4>
8000472c:	00000000 	nop
80004730:	1000001c 	b	800047a4 <n32_bgtz_test+0xac>
80004734:	00000000 	nop
80004738:	00000021 	move	zero,zero
8000473c:	00000021 	move	zero,zero
80004740:	00000021 	move	zero,zero
80004744:	00000021 	move	zero,zero
80004748:	00000021 	move	zero,zero
8000474c:	00000021 	move	zero,zero
80004750:	00000021 	move	zero,zero
80004754:	00000021 	move	zero,zero
80004758:	00000021 	move	zero,zero
8000475c:	00000021 	move	zero,zero
80004760:	00000021 	move	zero,zero
80004764:	00000021 	move	zero,zero
80004768:	00000021 	move	zero,zero
8000476c:	00000021 	move	zero,zero
80004770:	3c08cc73 	lui	t0,0xcc73
80004774:	35088190 	ori	t0,t0,0x8190
80004778:	1d00ffe9 	bgtz	t0,80004720 <n32_bgtz_test+0x28>
8000477c:	00000000 	nop
80004780:	10000008 	b	800047a4 <n32_bgtz_test+0xac>
80004784:	00000000 	nop
80004788:	00000021 	move	zero,zero
8000478c:	00000021 	move	zero,zero
80004790:	00000021 	move	zero,zero
80004794:	00000021 	move	zero,zero
80004798:	00000021 	move	zero,zero
8000479c:	3c1245eb 	lui	s2,0x45eb
800047a0:	36529450 	ori	s2,s2,0x9450
800047a4:	00000000 	nop
800047a8:	24140000 	li	s4,0
800047ac:	16140007 	bne	s0,s4,800047cc <inst_error>
800047b0:	00000000 	nop
800047b4:	24150000 	li	s5,0
800047b8:	16550004 	bne	s2,s5,800047cc <inst_error>
800047bc:	00000000 	nop
800047c0:	14400002 	bnez	v0,800047cc <inst_error>
800047c4:	00000000 	nop
800047c8:	26730001 	addiu	s3,s3,1

800047cc <inst_error>:
800047cc:	00934025 	or	t0,a0,s3
800047d0:	ae280000 	sw	t0,0(s1)
800047d4:	03e00008 	jr	ra
800047d8:	00000000 	nop
800047dc:	00000000 	nop

800047e0 <n20_ori_test>:
800047e0:	3c041400 	lui	a0,0x1400
800047e4:	24020000 	li	v0,0
800047e8:	3c080d48 	lui	t0,0xd48
800047ec:	3508918a 	ori	t0,t0,0x918a
800047f0:	24097fe6 	li	t1,32742
800047f4:	35107fe6 	ori	s0,t0,0x7fe6
800047f8:	3c120d48 	lui	s2,0xd48
800047fc:	3652ffee 	ori	s2,s2,0xffee
80004800:	16120004 	bne	s0,s2,80004814 <inst_error>
80004804:	00000000 	nop
80004808:	14400002 	bnez	v0,80004814 <inst_error>
8000480c:	00000000 	nop
80004810:	26730001 	addiu	s3,s3,1

80004814 <inst_error>:
80004814:	00934025 	or	t0,a0,s3
80004818:	ae280000 	sw	t0,0(s1)
8000481c:	03e00008 	jr	ra
80004820:	00000000 	nop
80004824:	00000000 	nop

80004828 <n25_sra_test>:
80004828:	3c041900 	lui	a0,0x1900
8000482c:	24020000 	li	v0,0
80004830:	3c087e00 	lui	t0,0x7e00
80004834:	350883f0 	ori	t0,t0,0x83f0
80004838:	24090009 	li	t1,9
8000483c:	00088243 	sra	s0,t0,0x9
80004840:	3c12003f 	lui	s2,0x3f
80004844:	36520041 	ori	s2,s2,0x41
80004848:	16120004 	bne	s0,s2,8000485c <inst_error>
8000484c:	00000000 	nop
80004850:	14400002 	bnez	v0,8000485c <inst_error>
80004854:	00000000 	nop
80004858:	26730001 	addiu	s3,s3,1

8000485c <inst_error>:
8000485c:	00934025 	or	t0,a0,s3
80004860:	ae280000 	sw	t0,0(s1)
80004864:	03e00008 	jr	ra
80004868:	00000000 	nop
8000486c:	00000000 	nop

80004870 <n15_and_test>:
80004870:	3c040f00 	lui	a0,0xf00
80004874:	24020000 	li	v0,0
80004878:	3c085c95 	lui	t0,0x5c95
8000487c:	3508951a 	ori	t0,t0,0x951a
80004880:	3c09ca00 	lui	t1,0xca00
80004884:	3529c414 	ori	t1,t1,0xc414
80004888:	01098024 	and	s0,t0,t1
8000488c:	3c124800 	lui	s2,0x4800
80004890:	36528410 	ori	s2,s2,0x8410
80004894:	16120004 	bne	s0,s2,800048a8 <inst_error>
80004898:	00000000 	nop
8000489c:	14400002 	bnez	v0,800048a8 <inst_error>
800048a0:	00000000 	nop
800048a4:	26730001 	addiu	s3,s3,1

800048a8 <inst_error>:
800048a8:	00934025 	or	t0,a0,s3
800048ac:	ae280000 	sw	t0,0(s1)
800048b0:	03e00008 	jr	ra
800048b4:	00000000 	nop

800048b8 <n17_lui_test>:
800048b8:	3c041100 	lui	a0,0x1100
800048bc:	24020000 	li	v0,0
800048c0:	3c085f00 	lui	t0,0x5f00
800048c4:	3c105f00 	lui	s0,0x5f00
800048c8:	15100004 	bne	t0,s0,800048dc <inst_error>
800048cc:	00000000 	nop
800048d0:	14400002 	bnez	v0,800048dc <inst_error>
800048d4:	00000000 	nop
800048d8:	26730001 	addiu	s3,s3,1

800048dc <inst_error>:
800048dc:	00934025 	or	t0,a0,s3
800048e0:	ae280000 	sw	t0,0(s1)
800048e4:	03e00008 	jr	ra
800048e8:	00000000 	nop
800048ec:	00000000 	nop
800048f0:	bd0a03dc 	cache	0xa,988(t0)
	...
